   1               		.file	"ucos_ii.c"
   2               	__SREG__ = 0x3f
   3               	__SP_H__ = 0x3e
   4               	__SP_L__ = 0x3d
   5               	__tmp_reg__ = 0
   6               	__zero_reg__ = 1
   7               		.global __do_copy_data
   8               		.global __do_clear_bss
  16               	.Ltext0:
  17               	.global	OSIntEnter
  19               	OSIntEnter:
  20               	.LFB3:
  21               	.LM1:
  22               	/* prologue: frame size=0 */
  23               	/* prologue end (size=0) */
  24               	.LM2:
  25 0000 8091 0000 		lds r24,OSRunning
  26 0004 8130      		cpi r24,lo8(1)
  27 0006 01F4      		brne .L5
  28               	.LM3:
  29 0008 8091 0000 		lds r24,OSIntNesting
  30 000c 8F3F      		cpi r24,lo8(-1)
  31 000e 01F0      		breq .L5
  32               	.LM4:
  33 0010 8F5F      		subi r24,lo8(-(1))
  34 0012 8093 0000 		sts OSIntNesting,r24
  35               	.L5:
  36 0016 0895      		ret
  37               	/* epilogue: frame size=0 */
  38               	/* epilogue: noreturn */
  39               	/* epilogue end (size=0) */
  40               	/* function OSIntEnter size 12 (12) */
  41               	.LFE3:
  43               	.global	OSVersion
  45               	OSVersion:
  46               	.LFB8:
  47               	.LM5:
  48               	/* prologue: frame size=0 */
  49               	/* prologue end (size=0) */
  50               	.LM6:
  51 0018 8CEF      		ldi r24,lo8(252)
  52 001a 90E0      		ldi r25,hi8(252)
  53               	/* epilogue: frame size=0 */
  54 001c 0895      		ret
  55               	/* epilogue end (size=1) */
  56               	/* function OSVersion size 3 (2) */
  57               	.LFE8:
  59               	.global	OS_Dummy
  61               	OS_Dummy:
  62               	.LFB9:
  63               	.LM7:
  64               	/* prologue: frame size=0 */
  65               	/* prologue end (size=0) */
  66               	/* epilogue: frame size=0 */
  67 001e 0895      		ret
  68               	/* epilogue end (size=1) */
  69               	/* function OS_Dummy size 1 (0) */
  70               	.LFE9:
  72               	.global	OS_EventTaskRdy
  74               	OS_EventTaskRdy:
  75               	.LFB10:
  76               	.LM8:
  77               	/* prologue: frame size=0 */
  78 0020 0F93      		push r16
  79 0022 1F93      		push r17
  80 0024 CF93      		push r28
  81 0026 DF93      		push r29
  82               	/* prologue end (size=4) */
  83               	.LVL0:
  84 0028 EC01      		movw r28,r24
  85 002a 042F      		mov r16,r20
  86               	.LM9:
  87 002c 5981      		ldd r21,Y+1
  88 002e E52F      		mov r30,r21
  89 0030 F0E0      		ldi r31,lo8(0)
  90 0032 E050      		subi r30,lo8(-(OSUnMapTbl))
  91 0034 F040      		sbci r31,hi8(-(OSUnMapTbl))
  92 0036 3081      		ld r19,Z
  93               	.LVL1:
  94               	.LM10:
  95 0038 632F      		mov r22,r19
  96               	.LVL2:
  97 003a 70E0      		ldi r23,lo8(0)
  98 003c FB01      		movw r30,r22
  99 003e E050      		subi r30,lo8(-(OSMapTbl))
 100 0040 F040      		sbci r31,hi8(-(OSMapTbl))
 101 0042 1081      		ld r17,Z
 102               	.LVL3:
 103               	.LM11:
 104 0044 DB01      		movw r26,r22
 105 0046 A80F      		add r26,r24
 106 0048 B91F      		adc r27,r25
 107 004a FD01      		movw r30,r26
 108 004c 9681      		ldd r25,Z+6
 109 004e E92F      		mov r30,r25
 110 0050 F0E0      		ldi r31,lo8(0)
 111 0052 E050      		subi r30,lo8(-(OSUnMapTbl))
 112 0054 F040      		sbci r31,hi8(-(OSUnMapTbl))
 113 0056 2081      		ld r18,Z
 114               	.LVL4:
 115               	.LM12:
 116 0058 E22F      		mov r30,r18
 117 005a F0E0      		ldi r31,lo8(0)
 118               	.LVL5:
 119 005c E050      		subi r30,lo8(-(OSMapTbl))
 120 005e F040      		sbci r31,hi8(-(OSMapTbl))
 121               	.LVL6:
 122 0060 4081      		ld r20,Z
 123               	.LVL7:
 124               	.LM13:
 125 0062 842F      		mov r24,r20
 126               	.LVL8:
 127 0064 8095      		com r24
 128 0066 8923      		and r24,r25
 129 0068 FD01      		movw r30,r26
 130               	.LVL9:
 131 006a 8683      		std Z+6,r24
 132 006c 8823      		tst r24
 133 006e 01F4      		brne .L11
 134               	.LM14:
 135 0070 812F      		mov r24,r17
 136 0072 8095      		com r24
 137 0074 5823      		and r21,r24
 138 0076 5983      		std Y+1,r21
 139               	.L11:
 140               	.LM15:
 141 0078 330F      		lsl r19
 142 007a 330F      		lsl r19
 143 007c 330F      		lsl r19
 144 007e 230F      		add r18,r19
 145               	.LVL10:
 146 0080 30E0      		ldi r19,lo8(0)
 147               	.LVL11:
 148 0082 F901      		movw r30,r18
 149               	.LVL12:
 150 0084 EE0F      		lsl r30
 151 0086 FF1F      		rol r31
 152 0088 E050      		subi r30,lo8(-(OSTCBPrioTbl))
 153 008a F040      		sbci r31,hi8(-(OSTCBPrioTbl))
 154 008c 0190      		ld __tmp_reg__,Z+
 155 008e F081      		ld r31,Z
 156 0090 E02D      		mov r30,__tmp_reg__
 157               	.LVL13:
 158               	.LM16:
 159 0092 1186      		std Z+9,__zero_reg__
 160 0094 1086      		std Z+8,__zero_reg__
 161               	.LM17:
 162 0096 1782      		std Z+7,__zero_reg__
 163 0098 1682      		std Z+6,__zero_reg__
 164               	.LM18:
 165 009a 802F      		mov r24,r16
 166 009c 8095      		com r24
 167 009e 9285      		ldd r25,Z+10
 168 00a0 8923      		and r24,r25
 169 00a2 8287      		std Z+10,r24
 170               	.LM19:
 171 00a4 8823      		tst r24
 172 00a6 01F4      		brne .L13
 173               	.LM20:
 174 00a8 8091 0000 		lds r24,OSRdyGrp
 175 00ac 812B      		or r24,r17
 176 00ae 8093 0000 		sts OSRdyGrp,r24
 177               	.LM21:
 178 00b2 FB01      		movw r30,r22
 179               	.LVL14:
 180 00b4 E050      		subi r30,lo8(-(OSRdyTbl))
 181 00b6 F040      		sbci r31,hi8(-(OSRdyTbl))
 182 00b8 8081      		ld r24,Z
 183 00ba 482B      		or r20,r24
 184 00bc 4083      		st Z,r20
 185               	.LVL15:
 186               	.L13:
 187               	.LM22:
 188 00be C901      		movw r24,r18
 189               	/* epilogue: frame size=0 */
 190 00c0 DF91      		pop r29
 191 00c2 CF91      		pop r28
 192 00c4 1F91      		pop r17
 193 00c6 0F91      		pop r16
 194 00c8 0895      		ret
 195               	/* epilogue end (size=5) */
 196               	/* function OS_EventTaskRdy size 85 (76) */
 197               	.LFE10:
 199               	.global	OS_EventTaskWait
 201               	OS_EventTaskWait:
 202               	.LFB11:
 203               	.LM23:
 204               	/* prologue: frame size=0 */
 205 00ca CF93      		push r28
 206 00cc DF93      		push r29
 207               	/* prologue end (size=2) */
 208               	.LVL16:
 209 00ce EC01      		movw r28,r24
 210               	.LM24:
 211 00d0 A091 0000 		lds r26,OSTCBCur
 212 00d4 B091 0000 		lds r27,(OSTCBCur)+1
 213 00d8 FD01      		movw r30,r26
 214 00da 9783      		std Z+7,r25
 215 00dc 8683      		std Z+6,r24
 216               	.LM25:
 217 00de 8585      		ldd r24,Z+13
 218               	.LVL17:
 219 00e0 282F      		mov r18,r24
 220 00e2 30E0      		ldi r19,lo8(0)
 221 00e4 4685      		ldd r20,Z+14
 222 00e6 F901      		movw r30,r18
 223 00e8 E050      		subi r30,lo8(-(OSRdyTbl))
 224 00ea F040      		sbci r31,hi8(-(OSRdyTbl))
 225 00ec 842F      		mov r24,r20
 226 00ee 8095      		com r24
 227 00f0 9081      		ld r25,Z
 228 00f2 8923      		and r24,r25
 229 00f4 8083      		st Z,r24
 230 00f6 8823      		tst r24
 231 00f8 01F4      		brne .L17
 232               	.LM26:
 233 00fa FD01      		movw r30,r26
 234 00fc 9785      		ldd r25,Z+15
 235 00fe 9095      		com r25
 236 0100 8091 0000 		lds r24,OSRdyGrp
 237 0104 8923      		and r24,r25
 238 0106 8093 0000 		sts OSRdyGrp,r24
 239               	.L17:
 240               	.LM27:
 241 010a F901      		movw r30,r18
 242 010c EC0F      		add r30,r28
 243 010e FD1F      		adc r31,r29
 244 0110 8681      		ldd r24,Z+6
 245 0112 842B      		or r24,r20
 246 0114 8683      		std Z+6,r24
 247               	.LM28:
 248 0116 E091 0000 		lds r30,OSTCBCur
 249 011a F091 0000 		lds r31,(OSTCBCur)+1
 250 011e 8981      		ldd r24,Y+1
 251 0120 9785      		ldd r25,Z+15
 252 0122 892B      		or r24,r25
 253 0124 8983      		std Y+1,r24
 254               	/* epilogue: frame size=0 */
 255 0126 DF91      		pop r29
 256 0128 CF91      		pop r28
 257 012a 0895      		ret
 258               	/* epilogue end (size=3) */
 259               	/* function OS_EventTaskWait size 49 (44) */
 260               	.LFE11:
 262               	.global	OS_EventTO
 264               	OS_EventTO:
 265               	.LFB12:
 266               	.LM29:
 267               	/* prologue: frame size=0 */
 268 012c CF93      		push r28
 269 012e DF93      		push r29
 270               	/* prologue end (size=2) */
 271               	.LVL18:
 272 0130 EC01      		movw r28,r24
 273               	.LM30:
 274 0132 E091 0000 		lds r30,OSTCBCur
 275 0136 F091 0000 		lds r31,(OSTCBCur)+1
 276 013a 8585      		ldd r24,Z+13
 277               	.LVL19:
 278 013c DE01      		movw r26,r28
 279 013e A80F      		add r26,r24
 280 0140 B11D      		adc r27,__zero_reg__
 281 0142 8685      		ldd r24,Z+14
 282 0144 8095      		com r24
 283 0146 FD01      		movw r30,r26
 284 0148 9681      		ldd r25,Z+6
 285 014a 8923      		and r24,r25
 286 014c 8683      		std Z+6,r24
 287 014e 8823      		tst r24
 288 0150 01F4      		brne .L21
 289               	.LM31:
 290 0152 E091 0000 		lds r30,OSTCBCur
 291 0156 F091 0000 		lds r31,(OSTCBCur)+1
 292 015a 9785      		ldd r25,Z+15
 293 015c 9095      		com r25
 294 015e 8981      		ldd r24,Y+1
 295 0160 8923      		and r24,r25
 296 0162 8983      		std Y+1,r24
 297               	.L21:
 298               	.LM32:
 299 0164 E091 0000 		lds r30,OSTCBCur
 300 0168 F091 0000 		lds r31,(OSTCBCur)+1
 301 016c 1286      		std Z+10,__zero_reg__
 302               	.LM33:
 303 016e E091 0000 		lds r30,OSTCBCur
 304 0172 F091 0000 		lds r31,(OSTCBCur)+1
 305 0176 1782      		std Z+7,__zero_reg__
 306 0178 1682      		std Z+6,__zero_reg__
 307               	/* epilogue: frame size=0 */
 308 017a DF91      		pop r29
 309 017c CF91      		pop r28
 310 017e 0895      		ret
 311               	/* epilogue end (size=3) */
 312               	/* function OS_EventTO size 42 (37) */
 313               	.LFE12:
 315               	.global	OS_EventWaitListInit
 317               	OS_EventWaitListInit:
 318               	.LFB13:
 319               	.LM34:
 320               	/* prologue: frame size=0 */
 321               	/* prologue end (size=0) */
 322               	.LVL20:
 323 0180 FC01      		movw r30,r24
 324               	.LM35:
 325 0182 1182      		std Z+1,__zero_reg__
 326               	.LM36:
 327 0184 1682      		std Z+6,__zero_reg__
 328               	.LM37:
 329 0186 1782      		std Z+7,__zero_reg__
 330               	.LM38:
 331 0188 1086      		std Z+8,__zero_reg__
 332               	.LM39:
 333 018a 1186      		std Z+9,__zero_reg__
 334               	.LM40:
 335 018c 1286      		std Z+10,__zero_reg__
 336               	.LM41:
 337 018e 1386      		std Z+11,__zero_reg__
 338               	.LM42:
 339 0190 1486      		std Z+12,__zero_reg__
 340               	.LM43:
 341 0192 1586      		std Z+13,__zero_reg__
 342               	/* epilogue: frame size=0 */
 343 0194 0895      		ret
 344               	/* epilogue end (size=1) */
 345               	/* function OS_EventWaitListInit size 11 (10) */
 346               	.LFE13:
 348               	.global	OSMutexCreate
 350               	OSMutexCreate:
 351               	.LFB24:
 352               	.LM44:
 353               	/* prologue: frame size=0 */
 354 0196 0F93      		push r16
 355 0198 1F93      		push r17
 356 019a CF93      		push r28
 357 019c DF93      		push r29
 358               	/* prologue end (size=4) */
 359               	.LVL21:
 360 019e 982F      		mov r25,r24
 361 01a0 8B01      		movw r16,r22
 362               	.LM45:
 363 01a2 8091 0000 		lds r24,OSIntNesting
 364               	.LVL22:
 365 01a6 8823      		tst r24
 366 01a8 01F0      		breq .L27
 367               	.LVL23:
 368               	.LM46:
 369 01aa 8DE8      		ldi r24,lo8(-115)
 370 01ac 00C0      		rjmp .L35
 371               	.L27:
 372               	.LM47:
 373               	/* #APP */
 374 01ae F894      		cli
 375               	.LM48:
 376               	/* #NOAPP */
 377 01b0 292F      		mov r18,r25
 378 01b2 30E0      		ldi r19,lo8(0)
 379 01b4 F901      		movw r30,r18
 380 01b6 EE0F      		lsl r30
 381 01b8 FF1F      		rol r31
 382 01ba E050      		subi r30,lo8(-(OSTCBPrioTbl))
 383 01bc F040      		sbci r31,hi8(-(OSTCBPrioTbl))
 384 01be 8081      		ld r24,Z
 385 01c0 9181      		ldd r25,Z+1
 386 01c2 892B      		or r24,r25
 387 01c4 01F0      		breq .L30
 388               	.LM49:
 389               	/* #APP */
 390 01c6 7894      		sei
 391               	.LM50:
 392               	/* #NOAPP */
 393 01c8 88E2      		ldi r24,lo8(40)
 394               	.L35:
 395 01ca F801      		movw r30,r16
 396 01cc 8083      		st Z,r24
 397 01ce C0E0      		ldi r28,lo8(0)
 398 01d0 D0E0      		ldi r29,hi8(0)
 399               	.LVL24:
 400 01d2 00C0      		rjmp .L29
 401               	.LVL25:
 402               	.L30:
 403               	.LM51:
 404 01d4 81E0      		ldi r24,lo8(1)
 405 01d6 90E0      		ldi r25,hi8(1)
 406 01d8 9183      		std Z+1,r25
 407 01da 8083      		st Z,r24
 408               	.LM52:
 409 01dc C091 0000 		lds r28,OSEventFreeList
 410 01e0 D091 0000 		lds r29,(OSEventFreeList)+1
 411               	.LVL26:
 412               	.LM53:
 413 01e4 2097      		sbiw r28,0
 414 01e6 01F4      		brne .L32
 415               	.LM54:
 416 01e8 1182      		std Z+1,__zero_reg__
 417 01ea 1082      		st Z,__zero_reg__
 418               	.LM55:
 419               	/* #APP */
 420 01ec 7894      		sei
 421               	.LM56:
 422               	/* #NOAPP */
 423 01ee 84E0      		ldi r24,lo8(4)
 424 01f0 FB01      		movw r30,r22
 425 01f2 8083      		st Z,r24
 426 01f4 00C0      		rjmp .L29
 427               	.L32:
 428               	.LM57:
 429 01f6 8C81      		ldd r24,Y+4
 430 01f8 9D81      		ldd r25,Y+5
 431 01fa 9093 0000 		sts (OSEventFreeList)+1,r25
 432 01fe 8093 0000 		sts OSEventFreeList,r24
 433               	.LM58:
 434               	/* #APP */
 435 0202 7894      		sei
 436               	.LM59:
 437               	/* #NOAPP */
 438 0204 84E0      		ldi r24,lo8(4)
 439 0206 8883      		st Y,r24
 440               	.LM60:
 441 0208 922F      		mov r25,r18
 442 020a 8827      		clr r24
 443               	.LVL27:
 444 020c 8F6F      		ori r24,lo8(255)
 445 020e 9B83      		std Y+3,r25
 446 0210 8A83      		std Y+2,r24
 447               	.LM61:
 448 0212 1D82      		std Y+5,__zero_reg__
 449 0214 1C82      		std Y+4,__zero_reg__
 450               	.LM62:
 451 0216 CE01      		movw r24,r28
 452 0218 0E94 0000 		call OS_EventWaitListInit
 453               	.LM63:
 454 021c F801      		movw r30,r16
 455 021e 1082      		st Z,__zero_reg__
 456               	.LVL28:
 457               	.L29:
 458               	.LM64:
 459 0220 CE01      		movw r24,r28
 460               	/* epilogue: frame size=0 */
 461 0222 DF91      		pop r29
 462 0224 CF91      		pop r28
 463 0226 1F91      		pop r17
 464 0228 0F91      		pop r16
 465 022a 0895      		ret
 466               	/* epilogue end (size=5) */
 467               	/* function OSMutexCreate size 79 (70) */
 468               	.LFE24:
 470               	.global	OSSemCreate
 472               	OSSemCreate:
 473               	.LFB27:
 474               	.LM65:
 475               	/* prologue: frame size=0 */
 476 022c CF93      		push r28
 477 022e DF93      		push r29
 478               	/* prologue end (size=2) */
 479               	.LVL29:
 480 0230 9C01      		movw r18,r24
 481               	.LM66:
 482 0232 8091 0000 		lds r24,OSIntNesting
 483               	.LVL30:
 484 0236 8823      		tst r24
 485 0238 01F0      		breq .L37
 486               	.LM67:
 487 023a C0E0      		ldi r28,lo8(0)
 488 023c D0E0      		ldi r29,hi8(0)
 489               	.LVL31:
 490 023e 00C0      		rjmp .L39
 491               	.LVL32:
 492               	.L37:
 493               	.LM68:
 494               	/* #APP */
 495 0240 F894      		cli
 496               	.LM69:
 497               	/* #NOAPP */
 498 0242 C091 0000 		lds r28,OSEventFreeList
 499 0246 D091 0000 		lds r29,(OSEventFreeList)+1
 500               	.LVL33:
 501               	.LM70:
 502 024a 2097      		sbiw r28,0
 503 024c 01F0      		breq .L40
 504               	.LM71:
 505 024e 8C81      		ldd r24,Y+4
 506 0250 9D81      		ldd r25,Y+5
 507 0252 9093 0000 		sts (OSEventFreeList)+1,r25
 508 0256 8093 0000 		sts OSEventFreeList,r24
 509               	.L40:
 510               	.LM72:
 511               	/* #APP */
 512 025a 7894      		sei
 513               	.LM73:
 514               	/* #NOAPP */
 515 025c 2097      		sbiw r28,0
 516 025e 01F0      		breq .L39
 517               	.LM74:
 518 0260 83E0      		ldi r24,lo8(3)
 519 0262 8883      		st Y,r24
 520               	.LM75:
 521 0264 3B83      		std Y+3,r19
 522 0266 2A83      		std Y+2,r18
 523               	.LM76:
 524 0268 1D82      		std Y+5,__zero_reg__
 525 026a 1C82      		std Y+4,__zero_reg__
 526               	.LM77:
 527 026c CE01      		movw r24,r28
 528 026e 0E94 0000 		call OS_EventWaitListInit
 529               	.LVL34:
 530               	.L39:
 531               	.LM78:
 532 0272 CE01      		movw r24,r28
 533               	/* epilogue: frame size=0 */
 534 0274 DF91      		pop r29
 535 0276 CF91      		pop r28
 536 0278 0895      		ret
 537               	/* epilogue end (size=3) */
 538               	/* function OSSemCreate size 41 (36) */
 539               	.LFE27:
 541               	.global	OSTaskDelReq
 543               	OSTaskDelReq:
 544               	.LFB32:
 545               	.LM79:
 546               	/* prologue: frame size=0 */
 547               	/* prologue end (size=0) */
 548               	.LVL35:
 549               	.LM80:
 550 027a 8F3F      		cpi r24,lo8(-1)
 551 027c 01F4      		brne .L45
 552               	.LM81:
 553               	/* #APP */
 554 027e F894      		cli
 555               	.LM82:
 556 0280 7894      		sei
 557               	.LM83:
 558               	/* #NOAPP */
 559 0282 E091 0000 		lds r30,OSTCBCur
 560 0286 F091 0000 		lds r31,(OSTCBCur)+1
 561 028a 8089      		ldd r24,Z+16
 562               	.LVL36:
 563 028c 90E0      		ldi r25,lo8(0)
 564 028e 0895      		ret
 565               	.LVL37:
 566               	.L45:
 567               	.LM84:
 568               	/* #APP */
 569 0290 F894      		cli
 570               	.LM85:
 571               	/* #NOAPP */
 572 0292 E82F      		mov r30,r24
 573 0294 F0E0      		ldi r31,lo8(0)
 574               	.LVL38:
 575 0296 EE0F      		lsl r30
 576 0298 FF1F      		rol r31
 577               	.LVL39:
 578 029a E050      		subi r30,lo8(-(OSTCBPrioTbl))
 579 029c F040      		sbci r31,hi8(-(OSTCBPrioTbl))
 580 029e 0190      		ld __tmp_reg__,Z+
 581 02a0 F081      		ld r31,Z
 582 02a2 E02D      		mov r30,__tmp_reg__
 583               	.LVL40:
 584               	.LM86:
 585 02a4 3097      		sbiw r30,0
 586 02a6 01F4      		brne .L48
 587 02a8 8BE0      		ldi r24,lo8(11)
 588               	.LVL41:
 589 02aa 00C0      		rjmp .L50
 590               	.LVL42:
 591               	.L48:
 592               	.LM87:
 593 02ac 8EE3      		ldi r24,lo8(62)
 594 02ae 808B      		std Z+16,r24
 595 02b0 80E0      		ldi r24,lo8(0)
 596               	.LVL43:
 597               	.L50:
 598               	.LM88:
 599               	/* #APP */
 600 02b2 7894      		sei
 601               	.LM89:
 602               	/* #NOAPP */
 603 02b4 90E0      		ldi r25,lo8(0)
 604               	.LVL44:
 605               	.LM90:
 606 02b6 0895      		ret
 607               	/* epilogue: frame size=0 */
 608               	/* epilogue: noreturn */
 609               	/* epilogue end (size=0) */
 610               	/* function OSTaskDelReq size 35 (35) */
 611               	.LFE32:
 613               	.global	OSTimeGet
 615               	OSTimeGet:
 616               	.LFB36:
 617               	.LM91:
 618               	/* prologue: frame size=0 */
 619               	/* prologue end (size=0) */
 620               	.LM92:
 621               	/* #APP */
 622 02b8 F894      		cli
 623               	.LM93:
 624               	/* #NOAPP */
 625 02ba 6091 0000 		lds r22,OSTime
 626 02be 7091 0000 		lds r23,(OSTime)+1
 627 02c2 8091 0000 		lds r24,(OSTime)+2
 628 02c6 9091 0000 		lds r25,(OSTime)+3
 629               	.LVL45:
 630               	.LM94:
 631               	/* #APP */
 632 02ca 7894      		sei
 633               	.LVL46:
 634               	/* #NOAPP */
 635               	/* epilogue: frame size=0 */
 636 02cc 0895      		ret
 637               	/* epilogue end (size=1) */
 638               	/* function OSTimeGet size 13 (12) */
 639               	.LFE36:
 641               	.global	OSTimeSet
 643               	OSTimeSet:
 644               	.LFB37:
 645               	.LM95:
 646               	/* prologue: frame size=0 */
 647               	/* prologue end (size=0) */
 648               	.LVL47:
 649               	.LM96:
 650               	/* #APP */
 651 02ce F894      		cli
 652               	.LM97:
 653               	/* #NOAPP */
 654 02d0 6093 0000 		sts OSTime,r22
 655 02d4 7093 0000 		sts (OSTime)+1,r23
 656 02d8 8093 0000 		sts (OSTime)+2,r24
 657 02dc 9093 0000 		sts (OSTime)+3,r25
 658               	.LM98:
 659               	/* #APP */
 660 02e0 7894      		sei
 661               	/* #NOAPP */
 662               	/* epilogue: frame size=0 */
 663 02e2 0895      		ret
 664               	/* epilogue end (size=1) */
 665               	/* function OSTimeSet size 13 (12) */
 666               	.LFE37:
 668               	.global	OS_TCBInit
 670               	OS_TCBInit:
 671               	.LFB23:
 672               	.LM99:
 673               	/* prologue: frame size=0 */
 674 02e4 1F93      		push r17
 675 02e6 CF93      		push r28
 676 02e8 DF93      		push r29
 677               	/* prologue end (size=3) */
 678               	.LVL48:
 679 02ea 182F      		mov r17,r24
 680               	.LM100:
 681               	/* #APP */
 682 02ec F894      		cli
 683               	.LM101:
 684               	/* #NOAPP */
 685 02ee C091 0000 		lds r28,OSTCBFreeList
 686 02f2 D091 0000 		lds r29,(OSTCBFreeList)+1
 687               	.LVL49:
 688               	.LM102:
 689 02f6 2097      		sbiw r28,0
 690 02f8 01F4      		brne .+2
 691 02fa 00C0      		rjmp .L57
 692               	.LVL50:
 693               	.LM103:
 694 02fc 8A81      		ldd r24,Y+2
 695 02fe 9B81      		ldd r25,Y+3
 696 0300 9093 0000 		sts (OSTCBFreeList)+1,r25
 697 0304 8093 0000 		sts OSTCBFreeList,r24
 698               	.LM104:
 699               	/* #APP */
 700 0308 7894      		sei
 701               	.LM105:
 702               	/* #NOAPP */
 703 030a 7983      		std Y+1,r23
 704 030c 6883      		st Y,r22
 705               	.LM106:
 706 030e 1B87      		std Y+11,r17
 707               	.LM107:
 708 0310 1A86      		std Y+10,__zero_reg__
 709               	.LM108:
 710 0312 1986      		std Y+9,__zero_reg__
 711 0314 1886      		std Y+8,__zero_reg__
 712               	.LM109:
 713 0316 188A      		std Y+16,__zero_reg__
 714               	.LM110:
 715 0318 E12F      		mov r30,r17
 716 031a E695      		lsr r30
 717 031c E695      		lsr r30
 718 031e E695      		lsr r30
 719 0320 ED87      		std Y+13,r30
 720               	.LM111:
 721 0322 F0E0      		ldi r31,lo8(0)
 722 0324 E050      		subi r30,lo8(-(OSMapTbl))
 723 0326 F040      		sbci r31,hi8(-(OSMapTbl))
 724 0328 8081      		ld r24,Z
 725 032a 8F87      		std Y+15,r24
 726               	.LM112:
 727 032c E12F      		mov r30,r17
 728 032e E770      		andi r30,lo8(7)
 729 0330 EC87      		std Y+12,r30
 730               	.LM113:
 731 0332 F0E0      		ldi r31,lo8(0)
 732 0334 E050      		subi r30,lo8(-(OSMapTbl))
 733 0336 F040      		sbci r31,hi8(-(OSMapTbl))
 734 0338 8081      		ld r24,Z
 735 033a 8E87      		std Y+14,r24
 736               	.LM114:
 737 033c 1F82      		std Y+7,__zero_reg__
 738 033e 1E82      		std Y+6,__zero_reg__
 739               	.LM115:
 740 0340 CE01      		movw r24,r28
 741 0342 0E94 0000 		call OSTCBInitHook
 742               	.LVL51:
 743               	.LM116:
 744 0346 CE01      		movw r24,r28
 745 0348 0E94 0000 		call OSTaskCreateHook
 746               	.LM117:
 747               	/* #APP */
 748 034c F894      		cli
 749               	.LM118:
 750               	/* #NOAPP */
 751 034e E12F      		mov r30,r17
 752 0350 F0E0      		ldi r31,lo8(0)
 753               	.LVL52:
 754 0352 EE0F      		lsl r30
 755 0354 FF1F      		rol r31
 756               	.LVL53:
 757 0356 E050      		subi r30,lo8(-(OSTCBPrioTbl))
 758 0358 F040      		sbci r31,hi8(-(OSTCBPrioTbl))
 759 035a D183      		std Z+1,r29
 760 035c C083      		st Z,r28
 761               	.LM119:
 762 035e E091 0000 		lds r30,OSTCBList
 763 0362 F091 0000 		lds r31,(OSTCBList)+1
 764               	.LVL54:
 765 0366 FB83      		std Y+3,r31
 766 0368 EA83      		std Y+2,r30
 767               	.LM120:
 768 036a 1D82      		std Y+5,__zero_reg__
 769 036c 1C82      		std Y+4,__zero_reg__
 770               	.LM121:
 771 036e 3097      		sbiw r30,0
 772 0370 01F0      		breq .L59
 773               	.LM122:
 774 0372 D583      		std Z+5,r29
 775 0374 C483      		std Z+4,r28
 776               	.L59:
 777               	.LM123:
 778 0376 D093 0000 		sts (OSTCBList)+1,r29
 779 037a C093 0000 		sts OSTCBList,r28
 780               	.LM124:
 781 037e 8091 0000 		lds r24,OSRdyGrp
 782 0382 9F85      		ldd r25,Y+15
 783 0384 892B      		or r24,r25
 784 0386 8093 0000 		sts OSRdyGrp,r24
 785               	.LM125:
 786 038a ED85      		ldd r30,Y+13
 787 038c F0E0      		ldi r31,lo8(0)
 788               	.LVL55:
 789 038e E050      		subi r30,lo8(-(OSRdyTbl))
 790 0390 F040      		sbci r31,hi8(-(OSRdyTbl))
 791 0392 8081      		ld r24,Z
 792 0394 9E85      		ldd r25,Y+14
 793 0396 892B      		or r24,r25
 794 0398 8083      		st Z,r24
 795               	.LM126:
 796               	/* #APP */
 797 039a 7894      		sei
 798               	/* #NOAPP */
 799 039c 80E0      		ldi r24,lo8(0)
 800 039e 90E0      		ldi r25,hi8(0)
 801 03a0 00C0      		rjmp .L61
 802               	.LVL56:
 803               	.L57:
 804               	.LM127:
 805               	/* #APP */
 806 03a2 7894      		sei
 807               	/* #NOAPP */
 808 03a4 86E4      		ldi r24,lo8(70)
 809 03a6 90E0      		ldi r25,hi8(70)
 810               	.L61:
 811               	/* epilogue: frame size=0 */
 812 03a8 DF91      		pop r29
 813 03aa CF91      		pop r28
 814 03ac 1F91      		pop r17
 815 03ae 0895      		ret
 816               	/* epilogue end (size=4) */
 817               	/* function OS_TCBInit size 107 (100) */
 818               	.LFE23:
 820               	.global	OS_TaskIdle
 822               	OS_TaskIdle:
 823               	.LFB21:
 824               	.LM128:
 825               	/* prologue: frame size=0 */
 826               	/* prologue end (size=0) */
 827               	.LVL57:
 828               	.L64:
 829               	.LM129:
 830               	/* #APP */
 831 03b0 F894      		cli
 832               	.LM130:
 833               	/* #NOAPP */
 834 03b2 8091 0000 		lds r24,OSIdleCtr
 835 03b6 9091 0000 		lds r25,(OSIdleCtr)+1
 836 03ba A091 0000 		lds r26,(OSIdleCtr)+2
 837 03be B091 0000 		lds r27,(OSIdleCtr)+3
 838               	.LVL58:
 839 03c2 0196      		adiw r24,1
 840 03c4 A11D      		adc r26,__zero_reg__
 841 03c6 B11D      		adc r27,__zero_reg__
 842 03c8 8093 0000 		sts OSIdleCtr,r24
 843 03cc 9093 0000 		sts (OSIdleCtr)+1,r25
 844 03d0 A093 0000 		sts (OSIdleCtr)+2,r26
 845 03d4 B093 0000 		sts (OSIdleCtr)+3,r27
 846               	.LM131:
 847               	/* #APP */
 848 03d8 7894      		sei
 849               	.LM132:
 850               	/* #NOAPP */
 851 03da 0E94 0000 		call OSTaskIdleHook
 852 03de 00C0      		rjmp .L64
 853               	/* epilogue: frame size=0 */
 854               	/* epilogue: noreturn */
 855               	/* epilogue end (size=0) */
 856               	/* function OS_TaskIdle size 26 (26) */
 857               	.LFE21:
 859               	.global	OS_Sched
 861               	OS_Sched:
 862               	.LFB20:
 863               	.LM133:
 864               	/* prologue: frame size=0 */
 865               	/* prologue end (size=0) */
 866               	.LM134:
 867               	/* #APP */
 868 03e0 F894      		cli
 869               	.LM135:
 870               	/* #NOAPP */
 871 03e2 8091 0000 		lds r24,OSIntNesting
 872 03e6 8823      		tst r24
 873 03e8 01F0      		breq .+2
 874 03ea 00C0      		rjmp .L67
 875               	.LM136:
 876 03ec 8091 0000 		lds r24,OSLockNesting
 877 03f0 8823      		tst r24
 878 03f2 01F4      		brne .L67
 879               	.LM137:
 880 03f4 E091 0000 		lds r30,OSRdyGrp
 881 03f8 F0E0      		ldi r31,lo8(0)
 882 03fa E050      		subi r30,lo8(-(OSUnMapTbl))
 883 03fc F040      		sbci r31,hi8(-(OSUnMapTbl))
 884 03fe 8081      		ld r24,Z
 885               	.LVL59:
 886               	.LM138:
 887 0400 E82F      		mov r30,r24
 888 0402 F0E0      		ldi r31,lo8(0)
 889               	.LVL60:
 890 0404 E050      		subi r30,lo8(-(OSRdyTbl))
 891 0406 F040      		sbci r31,hi8(-(OSRdyTbl))
 892               	.LVL61:
 893 0408 E081      		ld r30,Z
 894               	.LVL62:
 895 040a F0E0      		ldi r31,lo8(0)
 896               	.LVL63:
 897 040c E050      		subi r30,lo8(-(OSUnMapTbl))
 898 040e F040      		sbci r31,hi8(-(OSUnMapTbl))
 899 0410 982F      		mov r25,r24
 900               	.LVL64:
 901 0412 990F      		lsl r25
 902 0414 990F      		lsl r25
 903 0416 990F      		lsl r25
 904 0418 8081      		ld r24,Z
 905               	.LVL65:
 906 041a 980F      		add r25,r24
 907 041c 9093 0000 		sts OSPrioHighRdy,r25
 908               	.LM139:
 909 0420 8091 0000 		lds r24,OSPrioCur
 910 0424 9817      		cp r25,r24
 911 0426 01F0      		breq .L67
 912               	.LM140:
 913 0428 E92F      		mov r30,r25
 914 042a F0E0      		ldi r31,lo8(0)
 915 042c EE0F      		lsl r30
 916 042e FF1F      		rol r31
 917 0430 E050      		subi r30,lo8(-(OSTCBPrioTbl))
 918 0432 F040      		sbci r31,hi8(-(OSTCBPrioTbl))
 919 0434 8081      		ld r24,Z
 920 0436 9181      		ldd r25,Z+1
 921 0438 9093 0000 		sts (OSTCBHighRdy)+1,r25
 922 043c 8093 0000 		sts OSTCBHighRdy,r24
 923               	.LM141:
 924 0440 8091 0000 		lds r24,OSCtxSwCtr
 925 0444 9091 0000 		lds r25,(OSCtxSwCtr)+1
 926 0448 A091 0000 		lds r26,(OSCtxSwCtr)+2
 927 044c B091 0000 		lds r27,(OSCtxSwCtr)+3
 928 0450 0196      		adiw r24,1
 929 0452 A11D      		adc r26,__zero_reg__
 930 0454 B11D      		adc r27,__zero_reg__
 931 0456 8093 0000 		sts OSCtxSwCtr,r24
 932 045a 9093 0000 		sts (OSCtxSwCtr)+1,r25
 933 045e A093 0000 		sts (OSCtxSwCtr)+2,r26
 934 0462 B093 0000 		sts (OSCtxSwCtr)+3,r27
 935               	.LM142:
 936 0466 0E94 0000 		call OSCtxSw
 937               	.L67:
 938               	.LM143:
 939               	/* #APP */
 940 046a 7894      		sei
 941               	/* #NOAPP */
 942               	/* epilogue: frame size=0 */
 943 046c 0895      		ret
 944               	/* epilogue end (size=1) */
 945               	/* function OS_Sched size 72 (71) */
 946               	.LFE20:
 948               	.global	OSTimeDlyResume
 950               	OSTimeDlyResume:
 951               	.LFB35:
 952               	.LM144:
 953               	/* prologue: frame size=0 */
 954 046e CF93      		push r28
 955 0470 DF93      		push r29
 956               	/* prologue end (size=2) */
 957               	.LVL66:
 958               	.LM145:
 959 0472 8F33      		cpi r24,lo8(63)
 960 0474 00F0      		brlo .L73
 961               	.LM146:
 962 0476 8AE2      		ldi r24,lo8(42)
 963 0478 90E0      		ldi r25,hi8(42)
 964               	.LVL67:
 965 047a 00C0      		rjmp .L75
 966               	.LVL68:
 967               	.L73:
 968               	.LM147:
 969               	/* #APP */
 970 047c F894      		cli
 971               	.LM148:
 972               	/* #NOAPP */
 973 047e E82F      		mov r30,r24
 974 0480 F0E0      		ldi r31,lo8(0)
 975               	.LVL69:
 976 0482 EE0F      		lsl r30
 977 0484 FF1F      		rol r31
 978               	.LVL70:
 979 0486 E050      		subi r30,lo8(-(OSTCBPrioTbl))
 980 0488 F040      		sbci r31,hi8(-(OSTCBPrioTbl))
 981 048a A081      		ld r26,Z
 982 048c B181      		ldd r27,Z+1
 983               	.LVL71:
 984               	.LM149:
 985 048e 1097      		sbiw r26,0
 986 0490 01F0      		breq .L76
 987               	.LM150:
 988 0492 ED01      		movw r28,r26
 989 0494 8885      		ldd r24,Y+8
 990 0496 9985      		ldd r25,Y+9
 991 0498 892B      		or r24,r25
 992 049a 01F0      		breq .L78
 993               	.LM151:
 994 049c 1986      		std Y+9,__zero_reg__
 995 049e 1886      		std Y+8,__zero_reg__
 996               	.LM152:
 997 04a0 8A85      		ldd r24,Y+10
 998 04a2 83FD      		sbrc r24,3
 999 04a4 00C0      		rjmp .L80
 1000               	.LM153:
 1001 04a6 8091 0000 		lds r24,OSRdyGrp
 1002 04aa 9F85      		ldd r25,Y+15
 1003 04ac 892B      		or r24,r25
 1004 04ae 8093 0000 		sts OSRdyGrp,r24
 1005               	.LM154:
 1006 04b2 ED85      		ldd r30,Y+13
 1007               	.LVL72:
 1008 04b4 F0E0      		ldi r31,lo8(0)
 1009               	.LVL73:
 1010 04b6 E050      		subi r30,lo8(-(OSRdyTbl))
 1011 04b8 F040      		sbci r31,hi8(-(OSRdyTbl))
 1012 04ba 8081      		ld r24,Z
 1013 04bc 9E85      		ldd r25,Y+14
 1014 04be 892B      		or r24,r25
 1015 04c0 8083      		st Z,r24
 1016               	.LM155:
 1017               	/* #APP */
 1018 04c2 7894      		sei
 1019               	.LM156:
 1020               	/* #NOAPP */
 1021 04c4 0E94 0000 		call OS_Sched
 1022               	.LVL74:
 1023 04c8 00C0      		rjmp .L83
 1024               	.LVL75:
 1025               	.L80:
 1026               	.LM157:
 1027               	/* #APP */
 1028 04ca 7894      		sei
 1029               	/* #NOAPP */
 1030               	.L83:
 1031 04cc 80E0      		ldi r24,lo8(0)
 1032 04ce 90E0      		ldi r25,hi8(0)
 1033 04d0 00C0      		rjmp .L75
 1034               	.L78:
 1035               	.LM158:
 1036               	/* #APP */
 1037 04d2 7894      		sei
 1038               	/* #NOAPP */
 1039 04d4 80E5      		ldi r24,lo8(80)
 1040 04d6 90E0      		ldi r25,hi8(80)
 1041 04d8 00C0      		rjmp .L75
 1042               	.L76:
 1043               	.LM159:
 1044               	/* #APP */
 1045 04da 7894      		sei
 1046               	/* #NOAPP */
 1047 04dc 8BE0      		ldi r24,lo8(11)
 1048 04de 90E0      		ldi r25,hi8(11)
 1049               	.L75:
 1050               	/* epilogue: frame size=0 */
 1051 04e0 DF91      		pop r29
 1052 04e2 CF91      		pop r28
 1053 04e4 0895      		ret
 1054               	/* epilogue end (size=3) */
 1055               	/* function OSTimeDlyResume size 65 (60) */
 1056               	.LFE35:
 1058               	.global	OSTimeDly
 1060               	OSTimeDly:
 1061               	.LFB33:
 1062               	.LM160:
 1063               	/* prologue: frame size=0 */
 1064 04e6 CF93      		push r28
 1065 04e8 DF93      		push r29
 1066               	/* prologue end (size=2) */
 1067               	.LVL76:
 1068 04ea 9C01      		movw r18,r24
 1069               	.LM161:
 1070 04ec 892B      		or r24,r25
 1071 04ee 01F0      		breq .L89
 1072               	.LM162:
 1073               	/* #APP */
 1074 04f0 F894      		cli
 1075               	.LM163:
 1076               	/* #NOAPP */
 1077 04f2 A091 0000 		lds r26,OSTCBCur
 1078 04f6 B091 0000 		lds r27,(OSTCBCur)+1
 1079 04fa ED01      		movw r28,r26
 1080 04fc ED85      		ldd r30,Y+13
 1081 04fe F0E0      		ldi r31,lo8(0)
 1082 0500 E050      		subi r30,lo8(-(OSRdyTbl))
 1083 0502 F040      		sbci r31,hi8(-(OSRdyTbl))
 1084 0504 8E85      		ldd r24,Y+14
 1085               	.LVL77:
 1086 0506 8095      		com r24
 1087 0508 9081      		ld r25,Z
 1088 050a 8923      		and r24,r25
 1089 050c 8083      		st Z,r24
 1090 050e 8823      		tst r24
 1091 0510 01F4      		brne .L87
 1092               	.LM164:
 1093 0512 9F85      		ldd r25,Y+15
 1094 0514 9095      		com r25
 1095 0516 8091 0000 		lds r24,OSRdyGrp
 1096 051a 8923      		and r24,r25
 1097 051c 8093 0000 		sts OSRdyGrp,r24
 1098               	.L87:
 1099               	.LM165:
 1100 0520 FD01      		movw r30,r26
 1101 0522 3187      		std Z+9,r19
 1102 0524 2087      		std Z+8,r18
 1103               	.LM166:
 1104               	/* #APP */
 1105 0526 7894      		sei
 1106               	.LM167:
 1107               	/* #NOAPP */
 1108 0528 0E94 0000 		call OS_Sched
 1109               	.LVL78:
 1110               	.LVL79:
 1111               	.L89:
 1112               	/* epilogue: frame size=0 */
 1113 052c DF91      		pop r29
 1114 052e CF91      		pop r28
 1115 0530 0895      		ret
 1116               	/* epilogue end (size=3) */
 1117               	/* function OSTimeDly size 40 (35) */
 1118               	.LFE33:
 1120               	.global	OSTimeDlyHMSM
 1122               	OSTimeDlyHMSM:
 1123               	.LFB34:
 1124               	.LM168:
 1125               	/* prologue: frame size=0 */
 1126 0532 8F92      		push r8
 1127 0534 9F92      		push r9
 1128 0536 AF92      		push r10
 1129 0538 BF92      		push r11
 1130 053a CF92      		push r12
 1131 053c DF92      		push r13
 1132 053e EF92      		push r14
 1133 0540 FF92      		push r15
 1134 0542 0F93      		push r16
 1135 0544 1F93      		push r17
 1136 0546 CF93      		push r28
 1137 0548 DF93      		push r29
 1138               	/* prologue end (size=12) */
 1139               	.LVL80:
 1140 054a 882E      		mov r8,r24
 1141 054c 162F      		mov r17,r22
 1142 054e 942E      		mov r9,r20
 1143               	.LM169:
 1144 0550 8823      		tst r24
 1145 0552 01F4      		brne .L91
 1146               	.LVL81:
 1147               	.LM170:
 1148 0554 6623      		tst r22
 1149 0556 01F4      		brne .L91
 1150               	.LVL82:
 1151 0558 4423      		tst r20
 1152 055a 01F4      		brne .L94
 1153               	.LVL83:
 1154 055c 2115      		cp r18,__zero_reg__
 1155 055e 3105      		cpc r19,__zero_reg__
 1156 0560 01F4      		brne .L96
 1157 0562 84E5      		ldi r24,lo8(84)
 1158 0564 90E0      		ldi r25,hi8(84)
 1159               	.LVL84:
 1160 0566 00C0      		rjmp .L98
 1161               	.LVL85:
 1162               	.L91:
 1163               	.LM171:
 1164 0568 1C33      		cpi r17,lo8(60)
 1165 056a 00F0      		brlo .L94
 1166 056c 81E5      		ldi r24,lo8(81)
 1167 056e 90E0      		ldi r25,hi8(81)
 1168               	.LVL86:
 1169 0570 00C0      		rjmp .L98
 1170               	.LVL87:
 1171               	.L94:
 1172               	.LM172:
 1173 0572 8BE3      		ldi r24,lo8(59)
 1174               	.LVL88:
 1175 0574 8915      		cp r24,r9
 1176 0576 00F4      		brsh .L96
 1177 0578 82E5      		ldi r24,lo8(82)
 1178 057a 90E0      		ldi r25,hi8(82)
 1179 057c 00C0      		rjmp .L98
 1180               	.LVL89:
 1181               	.L96:
 1182               	.LM173:
 1183 057e 93E0      		ldi r25,hi8(1000)
 1184 0580 283E      		cpi r18,lo8(1000)
 1185 0582 3907      		cpc r19,r25
 1186 0584 00F0      		brlo .L101
 1187 0586 83E5      		ldi r24,lo8(83)
 1188 0588 90E0      		ldi r25,hi8(83)
 1189 058a 00C0      		rjmp .L98
 1190               	.LVL90:
 1191               	.L101:
 1192               	.LM174:
 1193 058c B901      		movw r22,r18
 1194 058e 80E0      		ldi r24,lo8(0)
 1195 0590 90E0      		ldi r25,hi8(0)
 1196               	.LVL91:
 1197 0592 24E6      		ldi r18,lo8(100)
 1198 0594 30E0      		ldi r19,hi8(100)
 1199 0596 40E0      		ldi r20,hlo8(100)
 1200 0598 50E0      		ldi r21,hhi8(100)
 1201               	.LVL92:
 1202 059a 0E94 0000 		call __mulsi3
 1203               	.LVL93:
 1204 059e 6C50      		subi r22,lo8(-(500))
 1205 05a0 7E4F      		sbci r23,hi8(-(500))
 1206 05a2 8F4F      		sbci r24,hlo8(-(500))
 1207 05a4 9F4F      		sbci r25,hhi8(-(500))
 1208 05a6 28EE      		ldi r18,lo8(1000)
 1209 05a8 33E0      		ldi r19,hi8(1000)
 1210 05aa 40E0      		ldi r20,hlo8(1000)
 1211 05ac 50E0      		ldi r21,hhi8(1000)
 1212 05ae 0E94 0000 		call __udivmodsi4
 1213 05b2 5901      		movw r10,r18
 1214 05b4 6A01      		movw r12,r20
 1215               	.LVL94:
 1216 05b6 612F      		mov r22,r17
 1217 05b8 70E0      		ldi r23,lo8(0)
 1218               	.LVL95:
 1219 05ba 80E0      		ldi r24,lo8(0)
 1220 05bc 90E0      		ldi r25,hi8(0)
 1221               	.LVL96:
 1222 05be 2CE3      		ldi r18,lo8(60)
 1223 05c0 30E0      		ldi r19,hi8(60)
 1224 05c2 40E0      		ldi r20,hlo8(60)
 1225 05c4 50E0      		ldi r21,hhi8(60)
 1226 05c6 0E94 0000 		call __mulsi3
 1227 05ca 7B01      		movw r14,r22
 1228 05cc 8C01      		movw r16,r24
 1229 05ce E90C      		add r14,r9
 1230 05d0 F11C      		adc r15,__zero_reg__
 1231 05d2 011D      		adc r16,__zero_reg__
 1232 05d4 111D      		adc r17,__zero_reg__
 1233 05d6 682D      		mov r22,r8
 1234 05d8 70E0      		ldi r23,lo8(0)
 1235               	.LVL97:
 1236 05da 80E0      		ldi r24,lo8(0)
 1237 05dc 90E0      		ldi r25,hi8(0)
 1238               	.LVL98:
 1239 05de 20E1      		ldi r18,lo8(3600)
 1240 05e0 3EE0      		ldi r19,hi8(3600)
 1241 05e2 40E0      		ldi r20,hlo8(3600)
 1242 05e4 50E0      		ldi r21,hhi8(3600)
 1243 05e6 0E94 0000 		call __mulsi3
 1244 05ea E60E      		add r14,r22
 1245 05ec F71E      		adc r15,r23
 1246 05ee 081F      		adc r16,r24
 1247 05f0 191F      		adc r17,r25
 1248 05f2 C801      		movw r24,r16
 1249 05f4 B701      		movw r22,r14
 1250 05f6 24E6      		ldi r18,lo8(100)
 1251 05f8 30E0      		ldi r19,hi8(100)
 1252 05fa 40E0      		ldi r20,hlo8(100)
 1253 05fc 50E0      		ldi r21,hhi8(100)
 1254 05fe 0E94 0000 		call __mulsi3
 1255 0602 A60E      		add r10,r22
 1256 0604 B71E      		adc r11,r23
 1257 0606 C81E      		adc r12,r24
 1258 0608 D91E      		adc r13,r25
 1259               	.LM175:
 1260 060a C601      		movw r24,r12
 1261 060c AA27      		clr r26
 1262 060e BB27      		clr r27
 1263               	.LVL99:
 1264 0610 EC01      		movw r28,r24
 1265               	.LVL100:
 1266               	.LM176:
 1267 0612 8FEF      		ldi r24,lo8(65535)
 1268 0614 9FEF      		ldi r25,hi8(65535)
 1269 0616 A0E0      		ldi r26,hlo8(65535)
 1270 0618 B0E0      		ldi r27,hhi8(65535)
 1271 061a A822      		and r10,r24
 1272 061c B922      		and r11,r25
 1273 061e CA22      		and r12,r26
 1274 0620 DB22      		and r13,r27
 1275 0622 C501      		movw r24,r10
 1276 0624 0E94 0000 		call OSTimeDly
 1277               	.LVL101:
 1278 0628 00C0      		rjmp .L103
 1279               	.L104:
 1280               	.LM177:
 1281 062a 80E0      		ldi r24,lo8(-32768)
 1282 062c 90E8      		ldi r25,hi8(-32768)
 1283 062e 0E94 0000 		call OSTimeDly
 1284               	.LM178:
 1285 0632 80E0      		ldi r24,lo8(-32768)
 1286 0634 90E8      		ldi r25,hi8(-32768)
 1287 0636 0E94 0000 		call OSTimeDly
 1288               	.LM179:
 1289 063a 2197      		sbiw r28,1
 1290               	.L103:
 1291               	.LM180:
 1292 063c 2097      		sbiw r28,0
 1293 063e 01F4      		brne .L104
 1294 0640 80E0      		ldi r24,lo8(0)
 1295 0642 90E0      		ldi r25,hi8(0)
 1296               	.LVL102:
 1297               	.L98:
 1298               	/* epilogue: frame size=0 */
 1299 0644 DF91      		pop r29
 1300 0646 CF91      		pop r28
 1301 0648 1F91      		pop r17
 1302 064a 0F91      		pop r16
 1303 064c FF90      		pop r15
 1304 064e EF90      		pop r14
 1305 0650 DF90      		pop r13
 1306 0652 CF90      		pop r12
 1307 0654 BF90      		pop r11
 1308 0656 AF90      		pop r10
 1309 0658 9F90      		pop r9
 1310 065a 8F90      		pop r8
 1311 065c 0895      		ret
 1312               	/* epilogue end (size=13) */
 1313               	/* function OSTimeDlyHMSM size 150 (125) */
 1314               	.LFE34:
 1316               	.global	OS_TaskStat
 1318               	OS_TaskStat:
 1319               	.LFB22:
 1320               	.LM181:
 1321               	/* prologue: frame size=0 */
 1322 065e EF92      		push r14
 1323 0660 FF92      		push r15
 1324 0662 0F93      		push r16
 1325 0664 1F93      		push r17
 1326               	/* prologue end (size=4) */
 1327               	.LVL103:
 1328 0666 00C0      		rjmp .L108
 1329               	.LVL104:
 1330               	.L109:
 1331               	.LM182:
 1332 0668 88EC      		ldi r24,lo8(200)
 1333 066a 90E0      		ldi r25,hi8(200)
 1334 066c 0E94 0000 		call OSTimeDly
 1335               	.LVL105:
 1336               	.L108:
 1337               	.LM183:
 1338 0670 8091 0000 		lds r24,OSStatRdy
 1339               	.LVL106:
 1340 0674 8823      		tst r24
 1341 0676 01F0      		breq .L109
 1342               	.LM184:
 1343 0678 6091 0000 		lds r22,OSIdleCtrMax
 1344 067c 7091 0000 		lds r23,(OSIdleCtrMax)+1
 1345 0680 8091 0000 		lds r24,(OSIdleCtrMax)+2
 1346 0684 9091 0000 		lds r25,(OSIdleCtrMax)+3
 1347 0688 24E6      		ldi r18,lo8(100)
 1348 068a 30E0      		ldi r19,hi8(100)
 1349 068c 40E0      		ldi r20,hlo8(100)
 1350 068e 50E0      		ldi r21,hhi8(100)
 1351 0690 0E94 0000 		call __udivmodsi4
 1352 0694 7901      		movw r14,r18
 1353 0696 8A01      		movw r16,r20
 1354               	.LVL107:
 1355               	.L111:
 1356               	.LM185:
 1357               	/* #APP */
 1358 0698 F894      		cli
 1359               	.LM186:
 1360               	/* #NOAPP */
 1361 069a 8091 0000 		lds r24,OSIdleCtr
 1362 069e 9091 0000 		lds r25,(OSIdleCtr)+1
 1363 06a2 A091 0000 		lds r26,(OSIdleCtr)+2
 1364 06a6 B091 0000 		lds r27,(OSIdleCtr)+3
 1365 06aa 8093 0000 		sts OSIdleCtrRun,r24
 1366 06ae 9093 0000 		sts (OSIdleCtrRun)+1,r25
 1367 06b2 A093 0000 		sts (OSIdleCtrRun)+2,r26
 1368 06b6 B093 0000 		sts (OSIdleCtrRun)+3,r27
 1369               	.LM187:
 1370 06ba 6091 0000 		lds r22,OSIdleCtr
 1371 06be 7091 0000 		lds r23,(OSIdleCtr)+1
 1372 06c2 8091 0000 		lds r24,(OSIdleCtr)+2
 1373 06c6 9091 0000 		lds r25,(OSIdleCtr)+3
 1374               	.LVL108:
 1375               	.LM188:
 1376 06ca 1092 0000 		sts OSIdleCtr,__zero_reg__
 1377 06ce 1092 0000 		sts (OSIdleCtr)+1,__zero_reg__
 1378 06d2 1092 0000 		sts (OSIdleCtr)+2,__zero_reg__
 1379 06d6 1092 0000 		sts (OSIdleCtr)+3,__zero_reg__
 1380               	.LM189:
 1381               	/* #APP */
 1382 06da 7894      		sei
 1383               	.LM190:
 1384               	/* #NOAPP */
 1385 06dc E114      		cp r14,__zero_reg__
 1386 06de F104      		cpc r15,__zero_reg__
 1387 06e0 0105      		cpc r16,__zero_reg__
 1388 06e2 1105      		cpc r17,__zero_reg__
 1389 06e4 01F0      		breq .L112
 1390               	.LM191:
 1391 06e6 A801      		movw r20,r16
 1392 06e8 9701      		movw r18,r14
 1393 06ea 0E94 0000 		call __udivmodsi4
 1394               	.LVL109:
 1395 06ee 84E6      		ldi r24,lo8(100)
 1396               	.LVL110:
 1397 06f0 821B      		sub r24,r18
 1398               	.LM192:
 1399 06f2 87FD      		sbrc r24,7
 1400 06f4 00C0      		rjmp .L114
 1401               	.LM193:
 1402 06f6 8093 0000 		sts OSCPUUsage,r24
 1403 06fa 00C0      		rjmp .L116
 1404               	.L114:
 1405               	.LM194:
 1406 06fc 1092 0000 		sts OSCPUUsage,__zero_reg__
 1407 0700 00C0      		rjmp .L116
 1408               	.LVL111:
 1409               	.L112:
 1410               	.LM195:
 1411 0702 1092 0000 		sts OSCPUUsage,__zero_reg__
 1412               	.LM196:
 1413 0706 6091 0000 		lds r22,OSIdleCtrMax
 1414 070a 7091 0000 		lds r23,(OSIdleCtrMax)+1
 1415 070e 8091 0000 		lds r24,(OSIdleCtrMax)+2
 1416 0712 9091 0000 		lds r25,(OSIdleCtrMax)+3
 1417               	.LVL112:
 1418 0716 24E6      		ldi r18,lo8(100)
 1419 0718 30E0      		ldi r19,hi8(100)
 1420 071a 40E0      		ldi r20,hlo8(100)
 1421 071c 50E0      		ldi r21,hhi8(100)
 1422 071e 0E94 0000 		call __udivmodsi4
 1423 0722 7901      		movw r14,r18
 1424 0724 8A01      		movw r16,r20
 1425               	.LVL113:
 1426               	.L116:
 1427               	.LM197:
 1428 0726 0E94 0000 		call OSTaskStatHook
 1429               	.LVL114:
 1430               	.LM198:
 1431 072a 84E6      		ldi r24,lo8(100)
 1432 072c 90E0      		ldi r25,hi8(100)
 1433 072e 0E94 0000 		call OSTimeDly
 1434 0732 00C0      		rjmp .L111
 1435               	/* epilogue: frame size=0 */
 1436               	/* epilogue: noreturn */
 1437               	/* epilogue end (size=0) */
 1438               	/* function OS_TaskStat size 109 (105) */
 1439               	.LFE22:
 1441               	.global	OSStatInit
 1443               	OSStatInit:
 1444               	.LFB6:
 1445               	.LM199:
 1446               	/* prologue: frame size=0 */
 1447               	/* prologue end (size=0) */
 1448               	.LM200:
 1449 0734 82E0      		ldi r24,lo8(2)
 1450 0736 90E0      		ldi r25,hi8(2)
 1451 0738 0E94 0000 		call OSTimeDly
 1452               	.LM201:
 1453               	/* #APP */
 1454 073c F894      		cli
 1455               	.LM202:
 1456               	/* #NOAPP */
 1457 073e 1092 0000 		sts OSIdleCtr,__zero_reg__
 1458 0742 1092 0000 		sts (OSIdleCtr)+1,__zero_reg__
 1459 0746 1092 0000 		sts (OSIdleCtr)+2,__zero_reg__
 1460 074a 1092 0000 		sts (OSIdleCtr)+3,__zero_reg__
 1461               	.LM203:
 1462               	/* #APP */
 1463 074e 7894      		sei
 1464               	.LM204:
 1465               	/* #NOAPP */
 1466 0750 84E6      		ldi r24,lo8(100)
 1467 0752 90E0      		ldi r25,hi8(100)
 1468 0754 0E94 0000 		call OSTimeDly
 1469               	.LM205:
 1470               	/* #APP */
 1471 0758 F894      		cli
 1472               	.LM206:
 1473               	/* #NOAPP */
 1474 075a 8091 0000 		lds r24,OSIdleCtr
 1475 075e 9091 0000 		lds r25,(OSIdleCtr)+1
 1476 0762 A091 0000 		lds r26,(OSIdleCtr)+2
 1477 0766 B091 0000 		lds r27,(OSIdleCtr)+3
 1478 076a 8093 0000 		sts OSIdleCtrMax,r24
 1479 076e 9093 0000 		sts (OSIdleCtrMax)+1,r25
 1480 0772 A093 0000 		sts (OSIdleCtrMax)+2,r26
 1481 0776 B093 0000 		sts (OSIdleCtrMax)+3,r27
 1482               	.LM207:
 1483 077a 81E0      		ldi r24,lo8(1)
 1484 077c 8093 0000 		sts OSStatRdy,r24
 1485               	.LM208:
 1486               	/* #APP */
 1487 0780 7894      		sei
 1488               	/* #NOAPP */
 1489               	/* epilogue: frame size=0 */
 1490 0782 0895      		ret
 1491               	/* epilogue end (size=1) */
 1492               	/* function OSStatInit size 44 (43) */
 1493               	.LFE6:
 1495               	.global	OSTaskCreate
 1497               	OSTaskCreate:
 1498               	.LFB30:
 1499               	.LM209:
 1500               	/* prologue: frame size=0 */
 1501 0784 9F92      		push r9
 1502 0786 AF92      		push r10
 1503 0788 BF92      		push r11
 1504 078a CF92      		push r12
 1505 078c DF92      		push r13
 1506 078e EF92      		push r14
 1507 0790 FF92      		push r15
 1508 0792 0F93      		push r16
 1509 0794 1F93      		push r17
 1510 0796 CF93      		push r28
 1511 0798 DF93      		push r29
 1512               	/* prologue end (size=11) */
 1513               	.LVL115:
 1514 079a FC01      		movw r30,r24
 1515 079c 922E      		mov r9,r18
 1516               	.LM210:
 1517               	/* #APP */
 1518 079e F894      		cli
 1519               	.LM211:
 1520               	/* #NOAPP */
 1521 07a0 C22F      		mov r28,r18
 1522 07a2 D0E0      		ldi r29,lo8(0)
 1523 07a4 CC0F      		lsl r28
 1524 07a6 DD1F      		rol r29
 1525 07a8 C050      		subi r28,lo8(-(OSTCBPrioTbl))
 1526 07aa D040      		sbci r29,hi8(-(OSTCBPrioTbl))
 1527 07ac 8881      		ld r24,Y
 1528 07ae 9981      		ldd r25,Y+1
 1529               	.LVL116:
 1530 07b0 892B      		or r24,r25
 1531 07b2 01F4      		brne .L121
 1532               	.LM212:
 1533 07b4 81E0      		ldi r24,lo8(1)
 1534 07b6 90E0      		ldi r25,hi8(1)
 1535 07b8 9983      		std Y+1,r25
 1536 07ba 8883      		st Y,r24
 1537               	.LM213:
 1538               	/* #APP */
 1539 07bc 7894      		sei
 1540               	.LM214:
 1541               	/* #NOAPP */
 1542 07be 20E0      		ldi r18,lo8(0)
 1543 07c0 30E0      		ldi r19,hi8(0)
 1544               	.LVL117:
 1545 07c2 CF01      		movw r24,r30
 1546 07c4 0E94 0000 		call OSTaskStkInit
 1547               	.LVL118:
 1548               	.LM215:
 1549 07c8 AA24      		clr r10
 1550 07ca BB24      		clr r11
 1551 07cc CC24      		clr r12
 1552 07ce DD24      		clr r13
 1553 07d0 EE24      		clr r14
 1554 07d2 FF24      		clr r15
 1555 07d4 8701      		movw r16,r14
 1556 07d6 20E0      		ldi r18,lo8(0)
 1557 07d8 30E0      		ldi r19,hi8(0)
 1558 07da 40E0      		ldi r20,lo8(0)
 1559 07dc 50E0      		ldi r21,hi8(0)
 1560 07de BC01      		movw r22,r24
 1561               	.LVL119:
 1562 07e0 892D      		mov r24,r9
 1563               	.LVL120:
 1564 07e2 0E94 0000 		call OS_TCBInit
 1565               	.LVL121:
 1566 07e6 182F      		mov r17,r24
 1567               	.LVL122:
 1568               	.LM216:
 1569 07e8 8823      		tst r24
 1570 07ea 01F4      		brne .L123
 1571               	.LVL123:
 1572               	.LM217:
 1573               	/* #APP */
 1574 07ec F894      		cli
 1575               	.LM218:
 1576               	/* #NOAPP */
 1577 07ee 8091 0000 		lds r24,OSTaskCtr
 1578               	.LVL124:
 1579 07f2 8F5F      		subi r24,lo8(-(1))
 1580 07f4 8093 0000 		sts OSTaskCtr,r24
 1581               	.LM219:
 1582               	/* #APP */
 1583 07f8 7894      		sei
 1584               	.LM220:
 1585               	/* #NOAPP */
 1586 07fa 8091 0000 		lds r24,OSRunning
 1587 07fe 8130      		cpi r24,lo8(1)
 1588 0800 01F4      		brne .L125
 1589               	.LM221:
 1590 0802 0E94 0000 		call OS_Sched
 1591 0806 00C0      		rjmp .L125
 1592               	.LVL125:
 1593               	.L123:
 1594               	.LM222:
 1595               	/* #APP */
 1596 0808 F894      		cli
 1597               	.LM223:
 1598               	/* #NOAPP */
 1599 080a 1982      		std Y+1,__zero_reg__
 1600 080c 1882      		st Y,__zero_reg__
 1601               	.LM224:
 1602               	/* #APP */
 1603 080e 7894      		sei
 1604               	.LVL126:
 1605               	/* #NOAPP */
 1606               	.L125:
 1607               	.LM225:
 1608 0810 812F      		mov r24,r17
 1609 0812 90E0      		ldi r25,lo8(0)
 1610 0814 00C0      		rjmp .L127
 1611               	.LVL127:
 1612               	.L121:
 1613               	.LM226:
 1614               	/* #APP */
 1615 0816 7894      		sei
 1616               	/* #NOAPP */
 1617 0818 88E2      		ldi r24,lo8(40)
 1618 081a 90E0      		ldi r25,hi8(40)
 1619               	.LVL128:
 1620               	.L127:
 1621               	/* epilogue: frame size=0 */
 1622 081c DF91      		pop r29
 1623 081e CF91      		pop r28
 1624 0820 1F91      		pop r17
 1625 0822 0F91      		pop r16
 1626 0824 FF90      		pop r15
 1627 0826 EF90      		pop r14
 1628 0828 DF90      		pop r13
 1629 082a CF90      		pop r12
 1630 082c BF90      		pop r11
 1631 082e AF90      		pop r10
 1632 0830 9F90      		pop r9
 1633 0832 0895      		ret
 1634               	/* epilogue end (size=12) */
 1635               	/* function OSTaskCreate size 95 (72) */
 1636               	.LFE30:
 1638               	.global	OSSemPost
 1640               	OSSemPost:
 1641               	.LFB29:
 1642               	.LM227:
 1643               	/* prologue: frame size=0 */
 1644               	/* prologue end (size=0) */
 1645               	.LVL129:
 1646 0834 FC01      		movw r30,r24
 1647               	.LM228:
 1648               	/* #APP */
 1649 0836 F894      		cli
 1650               	.LM229:
 1651               	/* #NOAPP */
 1652 0838 8181      		ldd r24,Z+1
 1653               	.LVL130:
 1654 083a 8823      		tst r24
 1655 083c 01F0      		breq .L130
 1656               	.LM230:
 1657 083e 41E0      		ldi r20,lo8(1)
 1658 0840 60E0      		ldi r22,lo8(0)
 1659 0842 70E0      		ldi r23,hi8(0)
 1660 0844 CF01      		movw r24,r30
 1661 0846 0E94 0000 		call OS_EventTaskRdy
 1662               	.LVL131:
 1663               	.LM231:
 1664               	/* #APP */
 1665 084a 7894      		sei
 1666               	.LM232:
 1667               	/* #NOAPP */
 1668 084c 0E94 0000 		call OS_Sched
 1669 0850 00C0      		rjmp .L136
 1670               	.LVL132:
 1671               	.L130:
 1672               	.LM233:
 1673 0852 8281      		ldd r24,Z+2
 1674 0854 9381      		ldd r25,Z+3
 1675 0856 2FEF      		ldi r18,hi8(-1)
 1676 0858 8F3F      		cpi r24,lo8(-1)
 1677 085a 9207      		cpc r25,r18
 1678 085c 01F0      		breq .L133
 1679               	.LM234:
 1680 085e 0196      		adiw r24,1
 1681 0860 9383      		std Z+3,r25
 1682 0862 8283      		std Z+2,r24
 1683               	.LM235:
 1684               	/* #APP */
 1685 0864 7894      		sei
 1686               	/* #NOAPP */
 1687               	.L136:
 1688 0866 80E0      		ldi r24,lo8(0)
 1689 0868 90E0      		ldi r25,hi8(0)
 1690 086a 0895      		ret
 1691               	.L133:
 1692               	.LM236:
 1693               	/* #APP */
 1694 086c 7894      		sei
 1695               	/* #NOAPP */
 1696 086e 82E3      		ldi r24,lo8(50)
 1697 0870 90E0      		ldi r25,hi8(50)
 1698               	.LM237:
 1699 0872 0895      		ret
 1700               	/* epilogue: frame size=0 */
 1701               	/* epilogue: noreturn */
 1702               	/* epilogue end (size=0) */
 1703               	/* function OSSemPost size 36 (36) */
 1704               	.LFE29:
 1706               	.global	OSSemPend
 1708               	OSSemPend:
 1709               	.LFB28:
 1710               	.LM238:
 1711               	/* prologue: frame size=0 */
 1712 0874 0F93      		push r16
 1713 0876 1F93      		push r17
 1714 0878 CF93      		push r28
 1715 087a DF93      		push r29
 1716               	/* prologue end (size=4) */
 1717               	.LVL133:
 1718 087c EC01      		movw r28,r24
 1719 087e 8A01      		movw r16,r20
 1720               	.LM239:
 1721 0880 8091 0000 		lds r24,OSIntNesting
 1722               	.LVL134:
 1723 0884 8823      		tst r24
 1724 0886 01F0      		breq .L138
 1725               	.LVL135:
 1726               	.LM240:
 1727 0888 82E0      		ldi r24,lo8(2)
 1728 088a 00C0      		rjmp .L147
 1729               	.L138:
 1730               	.LM241:
 1731               	/* #APP */
 1732 088c F894      		cli
 1733               	.LM242:
 1734               	/* #NOAPP */
 1735 088e 8A81      		ldd r24,Y+2
 1736 0890 9B81      		ldd r25,Y+3
 1737 0892 0097      		sbiw r24,0
 1738 0894 01F0      		breq .L141
 1739               	.LM243:
 1740 0896 0197      		sbiw r24,1
 1741 0898 9B83      		std Y+3,r25
 1742 089a 8A83      		std Y+2,r24
 1743 089c 00C0      		rjmp .L146
 1744               	.L141:
 1745               	.LM244:
 1746 089e E091 0000 		lds r30,OSTCBCur
 1747 08a2 F091 0000 		lds r31,(OSTCBCur)+1
 1748 08a6 8285      		ldd r24,Z+10
 1749 08a8 8160      		ori r24,lo8(1)
 1750 08aa 8287      		std Z+10,r24
 1751               	.LM245:
 1752 08ac E091 0000 		lds r30,OSTCBCur
 1753 08b0 F091 0000 		lds r31,(OSTCBCur)+1
 1754 08b4 7187      		std Z+9,r23
 1755 08b6 6087      		std Z+8,r22
 1756               	.LM246:
 1757 08b8 CE01      		movw r24,r28
 1758 08ba 0E94 0000 		call OS_EventTaskWait
 1759               	.LVL136:
 1760               	.LM247:
 1761               	/* #APP */
 1762 08be 7894      		sei
 1763               	.LM248:
 1764               	/* #NOAPP */
 1765 08c0 0E94 0000 		call OS_Sched
 1766               	.LM249:
 1767               	/* #APP */
 1768 08c4 F894      		cli
 1769               	.LM250:
 1770               	/* #NOAPP */
 1771 08c6 E091 0000 		lds r30,OSTCBCur
 1772 08ca F091 0000 		lds r31,(OSTCBCur)+1
 1773 08ce 8285      		ldd r24,Z+10
 1774 08d0 80FF      		sbrs r24,0
 1775 08d2 00C0      		rjmp .L143
 1776               	.LM251:
 1777 08d4 CE01      		movw r24,r28
 1778 08d6 0E94 0000 		call OS_EventTO
 1779               	.LM252:
 1780               	/* #APP */
 1781 08da 7894      		sei
 1782               	.LM253:
 1783               	/* #NOAPP */
 1784 08dc 8AE0      		ldi r24,lo8(10)
 1785               	.LVL137:
 1786               	.L147:
 1787 08de F801      		movw r30,r16
 1788 08e0 8083      		st Z,r24
 1789 08e2 00C0      		rjmp .L145
 1790               	.LVL138:
 1791               	.L143:
 1792               	.LM254:
 1793 08e4 1782      		std Z+7,__zero_reg__
 1794 08e6 1682      		std Z+6,__zero_reg__
 1795               	.LVL139:
 1796               	.L146:
 1797               	.LM255:
 1798               	/* #APP */
 1799 08e8 7894      		sei
 1800               	.LM256:
 1801               	/* #NOAPP */
 1802 08ea F801      		movw r30,r16
 1803 08ec 1082      		st Z,__zero_reg__
 1804               	.L145:
 1805               	/* epilogue: frame size=0 */
 1806 08ee DF91      		pop r29
 1807 08f0 CF91      		pop r28
 1808 08f2 1F91      		pop r17
 1809 08f4 0F91      		pop r16
 1810 08f6 0895      		ret
 1811               	/* epilogue end (size=5) */
 1812               	/* function OSSemPend size 71 (62) */
 1813               	.LFE28:
 1815               	.global	OSMutexPost
 1817               	OSMutexPost:
 1818               	.LFB26:
 1819               	.LM257:
 1820               	/* prologue: frame size=0 */
 1821 08f8 CF93      		push r28
 1822 08fa DF93      		push r29
 1823               	/* prologue end (size=2) */
 1824               	.LVL140:
 1825 08fc EC01      		movw r28,r24
 1826               	.LM258:
 1827 08fe 8091 0000 		lds r24,OSIntNesting
 1828               	.LVL141:
 1829 0902 8823      		tst r24
 1830 0904 01F0      		breq .L149
 1831               	.LM259:
 1832 0906 85E0      		ldi r24,lo8(5)
 1833 0908 90E0      		ldi r25,hi8(5)
 1834 090a 00C0      		rjmp .L151
 1835               	.L149:
 1836               	.LM260:
 1837               	/* #APP */
 1838 090c F894      		cli
 1839               	.LM261:
 1840               	/* #NOAPP */
 1841 090e 2A81      		ldd r18,Y+2
 1842 0910 3B81      		ldd r19,Y+3
 1843 0912 5B81      		ldd r21,Y+3
 1844               	.LVL142:
 1845               	.LM262:
 1846 0914 422F      		mov r20,r18
 1847               	.LVL143:
 1848               	.LM263:
 1849 0916 A091 0000 		lds r26,OSTCBCur
 1850 091a B091 0000 		lds r27,(OSTCBCur)+1
 1851 091e FD01      		movw r30,r26
 1852 0920 8385      		ldd r24,Z+11
 1853 0922 8517      		cp r24,r21
 1854 0924 01F0      		breq .L152
 1855 0926 8217      		cp r24,r18
 1856 0928 01F4      		brne .+2
 1857 092a 00C0      		rjmp .L154
 1858               	.LVL144:
 1859               	.LM264:
 1860               	/* #APP */
 1861 092c 7894      		sei
 1862               	/* #NOAPP */
 1863 092e 88E7      		ldi r24,lo8(120)
 1864 0930 90E0      		ldi r25,hi8(120)
 1865 0932 00C0      		rjmp .L151
 1866               	.LVL145:
 1867               	.L152:
 1868               	.LM265:
 1869 0934 FD01      		movw r30,r26
 1870 0936 8585      		ldd r24,Z+13
 1871 0938 682F      		mov r22,r24
 1872 093a 70E0      		ldi r23,lo8(0)
 1873 093c 6050      		subi r22,lo8(-(OSRdyTbl))
 1874 093e 7040      		sbci r23,hi8(-(OSRdyTbl))
 1875 0940 8685      		ldd r24,Z+14
 1876 0942 8095      		com r24
 1877 0944 FB01      		movw r30,r22
 1878 0946 9081      		ld r25,Z
 1879 0948 8923      		and r24,r25
 1880 094a 8083      		st Z,r24
 1881 094c 8823      		tst r24
 1882 094e 01F4      		brne .L156
 1883               	.LM266:
 1884 0950 FD01      		movw r30,r26
 1885 0952 9785      		ldd r25,Z+15
 1886 0954 9095      		com r25
 1887 0956 8091 0000 		lds r24,OSRdyGrp
 1888 095a 8923      		and r24,r25
 1889 095c 8093 0000 		sts OSRdyGrp,r24
 1890               	.L156:
 1891               	.LM267:
 1892 0960 FD01      		movw r30,r26
 1893 0962 2387      		std Z+11,r18
 1894               	.LM268:
 1895 0964 E091 0000 		lds r30,OSTCBCur
 1896 0968 F091 0000 		lds r31,(OSTCBCur)+1
 1897 096c 842F      		mov r24,r20
 1898 096e 8695      		lsr r24
 1899 0970 8695      		lsr r24
 1900 0972 8695      		lsr r24
 1901 0974 8587      		std Z+13,r24
 1902               	.LM269:
 1903 0976 A091 0000 		lds r26,OSTCBCur
 1904 097a B091 0000 		lds r27,(OSTCBCur)+1
 1905 097e FD01      		movw r30,r26
 1906 0980 8585      		ldd r24,Z+13
 1907 0982 E82F      		mov r30,r24
 1908 0984 F0E0      		ldi r31,lo8(0)
 1909 0986 E050      		subi r30,lo8(-(OSMapTbl))
 1910 0988 F040      		sbci r31,hi8(-(OSMapTbl))
 1911 098a 8081      		ld r24,Z
 1912 098c FD01      		movw r30,r26
 1913 098e 8787      		std Z+15,r24
 1914               	.LM270:
 1915 0990 E091 0000 		lds r30,OSTCBCur
 1916 0994 F091 0000 		lds r31,(OSTCBCur)+1
 1917 0998 842F      		mov r24,r20
 1918 099a 8770      		andi r24,lo8(7)
 1919 099c 8487      		std Z+12,r24
 1920               	.LM271:
 1921 099e A091 0000 		lds r26,OSTCBCur
 1922 09a2 B091 0000 		lds r27,(OSTCBCur)+1
 1923 09a6 FD01      		movw r30,r26
 1924 09a8 8485      		ldd r24,Z+12
 1925 09aa E82F      		mov r30,r24
 1926 09ac F0E0      		ldi r31,lo8(0)
 1927 09ae E050      		subi r30,lo8(-(OSMapTbl))
 1928 09b0 F040      		sbci r31,hi8(-(OSMapTbl))
 1929 09b2 8081      		ld r24,Z
 1930 09b4 FD01      		movw r30,r26
 1931 09b6 8687      		std Z+14,r24
 1932               	.LM272:
 1933 09b8 A091 0000 		lds r26,OSTCBCur
 1934 09bc B091 0000 		lds r27,(OSTCBCur)+1
 1935 09c0 8091 0000 		lds r24,OSRdyGrp
 1936 09c4 FD01      		movw r30,r26
 1937 09c6 9785      		ldd r25,Z+15
 1938 09c8 892B      		or r24,r25
 1939 09ca 8093 0000 		sts OSRdyGrp,r24
 1940               	.LM273:
 1941 09ce 8585      		ldd r24,Z+13
 1942 09d0 282F      		mov r18,r24
 1943 09d2 30E0      		ldi r19,lo8(0)
 1944 09d4 2050      		subi r18,lo8(-(OSRdyTbl))
 1945 09d6 3040      		sbci r19,hi8(-(OSRdyTbl))
 1946 09d8 F901      		movw r30,r18
 1947 09da 8081      		ld r24,Z
 1948 09dc FD01      		movw r30,r26
 1949 09de 9685      		ldd r25,Z+14
 1950 09e0 892B      		or r24,r25
 1951 09e2 F901      		movw r30,r18
 1952 09e4 8083      		st Z,r24
 1953               	.LM274:
 1954 09e6 E42F      		mov r30,r20
 1955 09e8 F0E0      		ldi r31,lo8(0)
 1956               	.LVL146:
 1957 09ea EE0F      		lsl r30
 1958 09ec FF1F      		rol r31
 1959               	.LVL147:
 1960 09ee E050      		subi r30,lo8(-(OSTCBPrioTbl))
 1961 09f0 F040      		sbci r31,hi8(-(OSTCBPrioTbl))
 1962 09f2 B183      		std Z+1,r27
 1963 09f4 A083      		st Z,r26
 1964               	.LVL148:
 1965               	.L154:
 1966               	.LM275:
 1967 09f6 E52F      		mov r30,r21
 1968 09f8 F0E0      		ldi r31,lo8(0)
 1969               	.LVL149:
 1970 09fa EE0F      		lsl r30
 1971 09fc FF1F      		rol r31
 1972               	.LVL150:
 1973 09fe E050      		subi r30,lo8(-(OSTCBPrioTbl))
 1974 0a00 F040      		sbci r31,hi8(-(OSTCBPrioTbl))
 1975 0a02 81E0      		ldi r24,lo8(1)
 1976 0a04 90E0      		ldi r25,hi8(1)
 1977 0a06 9183      		std Z+1,r25
 1978 0a08 8083      		st Z,r24
 1979               	.LM276:
 1980 0a0a 8981      		ldd r24,Y+1
 1981 0a0c 8823      		tst r24
 1982 0a0e 01F0      		breq .L158
 1983               	.LM277:
 1984 0a10 40E1      		ldi r20,lo8(16)
 1985 0a12 60E0      		ldi r22,lo8(0)
 1986 0a14 70E0      		ldi r23,hi8(0)
 1987 0a16 CE01      		movw r24,r28
 1988 0a18 0E94 0000 		call OS_EventTaskRdy
 1989               	.LVL151:
 1990               	.LM278:
 1991 0a1c 2A81      		ldd r18,Y+2
 1992 0a1e 3B81      		ldd r19,Y+3
 1993               	.LM279:
 1994 0a20 E82F      		mov r30,r24
 1995               	.LVL152:
 1996 0a22 F0E0      		ldi r31,lo8(0)
 1997               	.LVL153:
 1998 0a24 2070      		andi r18,lo8(-256)
 1999 0a26 2E2B      		or r18,r30
 2000 0a28 3F2B      		or r19,r31
 2001 0a2a 3B83      		std Y+3,r19
 2002 0a2c 2A83      		std Y+2,r18
 2003               	.LM280:
 2004 0a2e EE0F      		lsl r30
 2005 0a30 FF1F      		rol r31
 2006               	.LVL154:
 2007 0a32 E050      		subi r30,lo8(-(OSTCBPrioTbl))
 2008 0a34 F040      		sbci r31,hi8(-(OSTCBPrioTbl))
 2009 0a36 8081      		ld r24,Z
 2010 0a38 9181      		ldd r25,Z+1
 2011 0a3a 9D83      		std Y+5,r25
 2012 0a3c 8C83      		std Y+4,r24
 2013               	.LM281:
 2014               	/* #APP */
 2015 0a3e 7894      		sei
 2016               	.LM282:
 2017               	/* #NOAPP */
 2018 0a40 0E94 0000 		call OS_Sched
 2019               	.LVL155:
 2020 0a44 00C0      		rjmp .L161
 2021               	.LVL156:
 2022               	.L158:
 2023               	.LM283:
 2024 0a46 8A81      		ldd r24,Y+2
 2025 0a48 9B81      		ldd r25,Y+3
 2026 0a4a 8F6F      		ori r24,lo8(255)
 2027 0a4c 9B83      		std Y+3,r25
 2028 0a4e 8A83      		std Y+2,r24
 2029               	.LM284:
 2030 0a50 1D82      		std Y+5,__zero_reg__
 2031 0a52 1C82      		std Y+4,__zero_reg__
 2032               	.LM285:
 2033               	/* #APP */
 2034 0a54 7894      		sei
 2035               	/* #NOAPP */
 2036               	.L161:
 2037 0a56 80E0      		ldi r24,lo8(0)
 2038 0a58 90E0      		ldi r25,hi8(0)
 2039               	.LVL157:
 2040               	.L151:
 2041               	/* epilogue: frame size=0 */
 2042 0a5a DF91      		pop r29
 2043 0a5c CF91      		pop r28
 2044 0a5e 0895      		ret
 2045               	/* epilogue end (size=3) */
 2046               	/* function OSMutexPost size 185 (180) */
 2047               	.LFE26:
 2049               	.global	OSMutexPend
 2051               	OSMutexPend:
 2052               	.LFB25:
 2053               	.LM286:
 2054               	/* prologue: frame size=0 */
 2055 0a60 0F93      		push r16
 2056 0a62 1F93      		push r17
 2057 0a64 CF93      		push r28
 2058 0a66 DF93      		push r29
 2059               	/* prologue end (size=4) */
 2060               	.LVL158:
 2061 0a68 EC01      		movw r28,r24
 2062 0a6a 8A01      		movw r16,r20
 2063               	.LM287:
 2064 0a6c 8091 0000 		lds r24,OSIntNesting
 2065               	.LVL159:
 2066 0a70 8823      		tst r24
 2067 0a72 01F0      		breq .L163
 2068               	.LVL160:
 2069               	.LM288:
 2070 0a74 82E0      		ldi r24,lo8(2)
 2071 0a76 00C0      		rjmp .L183
 2072               	.L163:
 2073               	.LM289:
 2074               	/* #APP */
 2075 0a78 F894      		cli
 2076               	.LM290:
 2077               	/* #NOAPP */
 2078 0a7a 8A81      		ldd r24,Y+2
 2079 0a7c 9B81      		ldd r25,Y+3
 2080 0a7e 282F      		mov r18,r24
 2081 0a80 8F3F      		cpi r24,lo8(-1)
 2082 0a82 01F4      		brne .L166
 2083               	.LM291:
 2084 0a84 8070      		andi r24,lo8(-256)
 2085 0a86 9B83      		std Y+3,r25
 2086 0a88 8A83      		std Y+2,r24
 2087               	.LM292:
 2088 0a8a E091 0000 		lds r30,OSTCBCur
 2089 0a8e F091 0000 		lds r31,(OSTCBCur)+1
 2090 0a92 2385      		ldd r18,Z+11
 2091 0a94 30E0      		ldi r19,lo8(0)
 2092 0a96 282B      		or r18,r24
 2093 0a98 392B      		or r19,r25
 2094 0a9a 3B83      		std Y+3,r19
 2095 0a9c 2A83      		std Y+2,r18
 2096               	.LM293:
 2097 0a9e FD83      		std Y+5,r31
 2098 0aa0 EC83      		std Y+4,r30
 2099 0aa2 00C0      		rjmp .L182
 2100               	.L166:
 2101               	.LM294:
 2102 0aa4 892F      		mov r24,r25
 2103 0aa6 9927      		clr r25
 2104 0aa8 382F      		mov r19,r24
 2105               	.LVL161:
 2106               	.LM295:
 2107 0aaa AC81      		ldd r26,Y+4
 2108 0aac BD81      		ldd r27,Y+5
 2109               	.LVL162:
 2110               	.LM296:
 2111 0aae FD01      		movw r30,r26
 2112 0ab0 8385      		ldd r24,Z+11
 2113 0ab2 8317      		cp r24,r19
 2114 0ab4 01F4      		brne .+2
 2115 0ab6 00C0      		rjmp .L168
 2116 0ab8 E091 0000 		lds r30,OSTCBCur
 2117 0abc F091 0000 		lds r31,(OSTCBCur)+1
 2118 0ac0 8385      		ldd r24,Z+11
 2119 0ac2 8217      		cp r24,r18
 2120 0ac4 00F0      		brlo .+2
 2121 0ac6 00C0      		rjmp .L168
 2122               	.LM297:
 2123 0ac8 FD01      		movw r30,r26
 2124 0aca 8585      		ldd r24,Z+13
 2125 0acc 482F      		mov r20,r24
 2126 0ace 50E0      		ldi r21,lo8(0)
 2127 0ad0 4050      		subi r20,lo8(-(OSRdyTbl))
 2128 0ad2 5040      		sbci r21,hi8(-(OSRdyTbl))
 2129 0ad4 FA01      		movw r30,r20
 2130 0ad6 2081      		ld r18,Z
 2131 0ad8 FD01      		movw r30,r26
 2132 0ada 9685      		ldd r25,Z+14
 2133 0adc 822F      		mov r24,r18
 2134 0ade 8923      		and r24,r25
 2135 0ae0 01F0      		breq .L173
 2136               	.LM298:
 2137 0ae2 892F      		mov r24,r25
 2138 0ae4 8095      		com r24
 2139 0ae6 8223      		and r24,r18
 2140 0ae8 FA01      		movw r30,r20
 2141 0aea 8083      		st Z,r24
 2142 0aec 8823      		tst r24
 2143 0aee 01F4      		brne .L181
 2144               	.LM299:
 2145 0af0 FD01      		movw r30,r26
 2146 0af2 9785      		ldd r25,Z+15
 2147 0af4 9095      		com r25
 2148 0af6 8091 0000 		lds r24,OSRdyGrp
 2149 0afa 8923      		and r24,r25
 2150 0afc 8093 0000 		sts OSRdyGrp,r24
 2151               	.L181:
 2152 0b00 81E0      		ldi r24,lo8(1)
 2153               	.LVL163:
 2154               	.L173:
 2155               	.LM300:
 2156 0b02 FD01      		movw r30,r26
 2157 0b04 3387      		std Z+11,r19
 2158               	.LM301:
 2159 0b06 932F      		mov r25,r19
 2160 0b08 9695      		lsr r25
 2161 0b0a 9695      		lsr r25
 2162 0b0c 9695      		lsr r25
 2163 0b0e 9587      		std Z+13,r25
 2164               	.LM302:
 2165 0b10 E92F      		mov r30,r25
 2166 0b12 F0E0      		ldi r31,lo8(0)
 2167 0b14 E050      		subi r30,lo8(-(OSMapTbl))
 2168 0b16 F040      		sbci r31,hi8(-(OSMapTbl))
 2169 0b18 2081      		ld r18,Z
 2170 0b1a FD01      		movw r30,r26
 2171 0b1c 2787      		std Z+15,r18
 2172               	.LM303:
 2173 0b1e 932F      		mov r25,r19
 2174 0b20 9770      		andi r25,lo8(7)
 2175 0b22 9487      		std Z+12,r25
 2176               	.LM304:
 2177 0b24 E92F      		mov r30,r25
 2178 0b26 F0E0      		ldi r31,lo8(0)
 2179 0b28 E050      		subi r30,lo8(-(OSMapTbl))
 2180 0b2a F040      		sbci r31,hi8(-(OSMapTbl))
 2181 0b2c 9081      		ld r25,Z
 2182 0b2e FD01      		movw r30,r26
 2183 0b30 9687      		std Z+14,r25
 2184               	.LM305:
 2185 0b32 8130      		cpi r24,lo8(1)
 2186 0b34 01F4      		brne .L176
 2187               	.LM306:
 2188 0b36 8091 0000 		lds r24,OSRdyGrp
 2189               	.LVL164:
 2190 0b3a 822B      		or r24,r18
 2191 0b3c 8093 0000 		sts OSRdyGrp,r24
 2192               	.LM307:
 2193 0b40 8585      		ldd r24,Z+13
 2194 0b42 E82F      		mov r30,r24
 2195 0b44 F0E0      		ldi r31,lo8(0)
 2196 0b46 E050      		subi r30,lo8(-(OSRdyTbl))
 2197 0b48 F040      		sbci r31,hi8(-(OSRdyTbl))
 2198 0b4a 8081      		ld r24,Z
 2199 0b4c 982B      		or r25,r24
 2200 0b4e 9083      		st Z,r25
 2201               	.LVL165:
 2202               	.L176:
 2203               	.LM308:
 2204 0b50 E32F      		mov r30,r19
 2205 0b52 F0E0      		ldi r31,lo8(0)
 2206               	.LVL166:
 2207 0b54 EE0F      		lsl r30
 2208 0b56 FF1F      		rol r31
 2209               	.LVL167:
 2210 0b58 E050      		subi r30,lo8(-(OSTCBPrioTbl))
 2211 0b5a F040      		sbci r31,hi8(-(OSTCBPrioTbl))
 2212 0b5c B183      		std Z+1,r27
 2213 0b5e A083      		st Z,r26
 2214               	.LVL168:
 2215               	.L168:
 2216               	.LM309:
 2217 0b60 E091 0000 		lds r30,OSTCBCur
 2218 0b64 F091 0000 		lds r31,(OSTCBCur)+1
 2219 0b68 8285      		ldd r24,Z+10
 2220               	.LVL169:
 2221 0b6a 8061      		ori r24,lo8(16)
 2222 0b6c 8287      		std Z+10,r24
 2223               	.LM310:
 2224 0b6e E091 0000 		lds r30,OSTCBCur
 2225 0b72 F091 0000 		lds r31,(OSTCBCur)+1
 2226 0b76 7187      		std Z+9,r23
 2227 0b78 6087      		std Z+8,r22
 2228               	.LM311:
 2229 0b7a CE01      		movw r24,r28
 2230 0b7c 0E94 0000 		call OS_EventTaskWait
 2231               	.LVL170:
 2232               	.LM312:
 2233               	/* #APP */
 2234 0b80 7894      		sei
 2235               	.LM313:
 2236               	/* #NOAPP */
 2237 0b82 0E94 0000 		call OS_Sched
 2238               	.LM314:
 2239               	/* #APP */
 2240 0b86 F894      		cli
 2241               	.LM315:
 2242               	/* #NOAPP */
 2243 0b88 E091 0000 		lds r30,OSTCBCur
 2244 0b8c F091 0000 		lds r31,(OSTCBCur)+1
 2245 0b90 8285      		ldd r24,Z+10
 2246 0b92 84FF      		sbrs r24,4
 2247 0b94 00C0      		rjmp .L178
 2248               	.LM316:
 2249 0b96 CE01      		movw r24,r28
 2250 0b98 0E94 0000 		call OS_EventTO
 2251               	.LM317:
 2252               	/* #APP */
 2253 0b9c 7894      		sei
 2254               	.LM318:
 2255               	/* #NOAPP */
 2256 0b9e 8AE0      		ldi r24,lo8(10)
 2257               	.LVL171:
 2258               	.L183:
 2259 0ba0 F801      		movw r30,r16
 2260 0ba2 8083      		st Z,r24
 2261 0ba4 00C0      		rjmp .L180
 2262               	.LVL172:
 2263               	.L178:
 2264               	.LM319:
 2265 0ba6 1782      		std Z+7,__zero_reg__
 2266 0ba8 1682      		std Z+6,__zero_reg__
 2267               	.LVL173:
 2268               	.L182:
 2269               	.LM320:
 2270               	/* #APP */
 2271 0baa 7894      		sei
 2272               	.LM321:
 2273               	/* #NOAPP */
 2274 0bac F801      		movw r30,r16
 2275 0bae 1082      		st Z,__zero_reg__
 2276               	.L180:
 2277               	/* epilogue: frame size=0 */
 2278 0bb0 DF91      		pop r29
 2279 0bb2 CF91      		pop r28
 2280 0bb4 1F91      		pop r17
 2281 0bb6 0F91      		pop r16
 2282 0bb8 0895      		ret
 2283               	/* epilogue end (size=5) */
 2284               	/* function OSMutexPend size 180 (171) */
 2285               	.LFE25:
 2287               	.global	OSTimeTick
 2289               	OSTimeTick:
 2290               	.LFB7:
 2291               	.LM322:
 2292               	/* prologue: frame size=0 */
 2293 0bba CF93      		push r28
 2294 0bbc DF93      		push r29
 2295               	/* prologue end (size=2) */
 2296               	.LM323:
 2297 0bbe 0E94 0000 		call OSTimeTickHook
 2298               	.LM324:
 2299               	/* #APP */
 2300 0bc2 F894      		cli
 2301               	.LM325:
 2302               	/* #NOAPP */
 2303 0bc4 8091 0000 		lds r24,OSTime
 2304 0bc8 9091 0000 		lds r25,(OSTime)+1
 2305 0bcc A091 0000 		lds r26,(OSTime)+2
 2306 0bd0 B091 0000 		lds r27,(OSTime)+3
 2307 0bd4 0196      		adiw r24,1
 2308 0bd6 A11D      		adc r26,__zero_reg__
 2309 0bd8 B11D      		adc r27,__zero_reg__
 2310 0bda 8093 0000 		sts OSTime,r24
 2311 0bde 9093 0000 		sts (OSTime)+1,r25
 2312 0be2 A093 0000 		sts (OSTime)+2,r26
 2313 0be6 B093 0000 		sts (OSTime)+3,r27
 2314               	.LM326:
 2315               	/* #APP */
 2316 0bea 7894      		sei
 2317               	.LM327:
 2318               	/* #NOAPP */
 2319 0bec 8091 0000 		lds r24,OSRunning
 2320 0bf0 8130      		cpi r24,lo8(1)
 2321 0bf2 01F4      		brne .L195
 2322               	.LM328:
 2323 0bf4 A091 0000 		lds r26,OSTCBList
 2324 0bf8 B091 0000 		lds r27,(OSTCBList)+1
 2325               	.LVL174:
 2326 0bfc 2091 0000 		lds r18,OSRdyGrp
 2327 0c00 00C0      		rjmp .L187
 2328               	.L188:
 2329               	.LM329:
 2330               	/* #APP */
 2331 0c02 F894      		cli
 2332               	.LM330:
 2333               	/* #NOAPP */
 2334 0c04 ED01      		movw r28,r26
 2335 0c06 8885      		ldd r24,Y+8
 2336 0c08 9985      		ldd r25,Y+9
 2337 0c0a 0097      		sbiw r24,0
 2338 0c0c 01F0      		breq .L189
 2339               	.LM331:
 2340 0c0e 0197      		sbiw r24,1
 2341 0c10 9987      		std Y+9,r25
 2342 0c12 8887      		std Y+8,r24
 2343 0c14 892B      		or r24,r25
 2344 0c16 01F4      		brne .L189
 2345               	.LM332:
 2346 0c18 8A85      		ldd r24,Y+10
 2347 0c1a 83FD      		sbrc r24,3
 2348 0c1c 00C0      		rjmp .L192
 2349               	.LM333:
 2350 0c1e 8F85      		ldd r24,Y+15
 2351 0c20 282B      		or r18,r24
 2352               	.LM334:
 2353 0c22 ED85      		ldd r30,Y+13
 2354 0c24 F0E0      		ldi r31,lo8(0)
 2355 0c26 E050      		subi r30,lo8(-(OSRdyTbl))
 2356 0c28 F040      		sbci r31,hi8(-(OSRdyTbl))
 2357 0c2a 8081      		ld r24,Z
 2358 0c2c 9E85      		ldd r25,Y+14
 2359 0c2e 892B      		or r24,r25
 2360 0c30 8083      		st Z,r24
 2361 0c32 00C0      		rjmp .L189
 2362               	.L192:
 2363               	.LM335:
 2364 0c34 81E0      		ldi r24,lo8(1)
 2365 0c36 90E0      		ldi r25,hi8(1)
 2366 0c38 FD01      		movw r30,r26
 2367 0c3a 9187      		std Z+9,r25
 2368 0c3c 8087      		std Z+8,r24
 2369               	.L189:
 2370               	.LM336:
 2371 0c3e ED01      		movw r28,r26
 2372 0c40 AA81      		ldd r26,Y+2
 2373 0c42 BB81      		ldd r27,Y+3
 2374               	.LM337:
 2375               	/* #APP */
 2376 0c44 7894      		sei
 2377               	/* #NOAPP */
 2378               	.L187:
 2379               	.LM338:
 2380 0c46 FD01      		movw r30,r26
 2381 0c48 8385      		ldd r24,Z+11
 2382 0c4a 8F33      		cpi r24,lo8(63)
 2383 0c4c 01F4      		brne .L188
 2384 0c4e 2093 0000 		sts OSRdyGrp,r18
 2385               	.L195:
 2386               	/* epilogue: frame size=0 */
 2387 0c52 DF91      		pop r29
 2388 0c54 CF91      		pop r28
 2389 0c56 0895      		ret
 2390               	/* epilogue end (size=3) */
 2391               	/* function OSTimeTick size 83 (78) */
 2392               	.LFE7:
 2394               	.global	OSStart
 2396               	OSStart:
 2397               	.LFB5:
 2398               	.LM339:
 2399               	/* prologue: frame size=0 */
 2400               	/* prologue end (size=0) */
 2401               	.LM340:
 2402 0c58 8091 0000 		lds r24,OSRunning
 2403 0c5c 8823      		tst r24
 2404 0c5e 01F4      		brne .L199
 2405               	.LM341:
 2406 0c60 E091 0000 		lds r30,OSRdyGrp
 2407 0c64 F0E0      		ldi r31,lo8(0)
 2408 0c66 E050      		subi r30,lo8(-(OSUnMapTbl))
 2409 0c68 F040      		sbci r31,hi8(-(OSUnMapTbl))
 2410 0c6a A081      		ld r26,Z
 2411               	.LVL175:
 2412               	.LM342:
 2413 0c6c EA2F      		mov r30,r26
 2414 0c6e F0E0      		ldi r31,lo8(0)
 2415               	.LVL176:
 2416 0c70 E050      		subi r30,lo8(-(OSRdyTbl))
 2417 0c72 F040      		sbci r31,hi8(-(OSRdyTbl))
 2418               	.LVL177:
 2419 0c74 E081      		ld r30,Z
 2420               	.LVL178:
 2421 0c76 F0E0      		ldi r31,lo8(0)
 2422               	.LVL179:
 2423 0c78 E050      		subi r30,lo8(-(OSUnMapTbl))
 2424 0c7a F040      		sbci r31,hi8(-(OSUnMapTbl))
 2425 0c7c AA0F      		lsl r26
 2426 0c7e AA0F      		lsl r26
 2427 0c80 AA0F      		lsl r26
 2428               	.LVL180:
 2429 0c82 8081      		ld r24,Z
 2430 0c84 A80F      		add r26,r24
 2431 0c86 A093 0000 		sts OSPrioHighRdy,r26
 2432               	.LM343:
 2433 0c8a A093 0000 		sts OSPrioCur,r26
 2434               	.LM344:
 2435 0c8e B0E0      		ldi r27,lo8(0)
 2436 0c90 AA0F      		lsl r26
 2437 0c92 BB1F      		rol r27
 2438 0c94 A050      		subi r26,lo8(-(OSTCBPrioTbl))
 2439 0c96 B040      		sbci r27,hi8(-(OSTCBPrioTbl))
 2440 0c98 8D91      		ld r24,X+
 2441 0c9a 9C91      		ld r25,X
 2442 0c9c 9093 0000 		sts (OSTCBHighRdy)+1,r25
 2443 0ca0 8093 0000 		sts OSTCBHighRdy,r24
 2444               	.LM345:
 2445 0ca4 9093 0000 		sts (OSTCBCur)+1,r25
 2446 0ca8 8093 0000 		sts OSTCBCur,r24
 2447               	.LM346:
 2448 0cac 0E94 0000 		call OSStartHighRdy
 2449               	.L199:
 2450 0cb0 0895      		ret
 2451               	/* epilogue: frame size=0 */
 2452               	/* epilogue: noreturn */
 2453               	/* epilogue end (size=0) */
 2454               	/* function OSStart size 45 (45) */
 2455               	.LFE5:
 2457               	.global	OSIntExit
 2459               	OSIntExit:
 2460               	.LFB4:
 2461               	.LM347:
 2462               	/* prologue: frame size=0 */
 2463               	/* prologue end (size=0) */
 2464               	.LM348:
 2465 0cb2 8091 0000 		lds r24,OSRunning
 2466 0cb6 8130      		cpi r24,lo8(1)
 2467 0cb8 01F0      		breq .+2
 2468 0cba 00C0      		rjmp .L209
 2469               	.LM349:
 2470               	/* #APP */
 2471 0cbc F894      		cli
 2472               	.LM350:
 2473               	/* #NOAPP */
 2474 0cbe 8091 0000 		lds r24,OSIntNesting
 2475 0cc2 8823      		tst r24
 2476 0cc4 01F0      		breq .L203
 2477               	.LM351:
 2478 0cc6 8150      		subi r24,lo8(-(-1))
 2479 0cc8 8093 0000 		sts OSIntNesting,r24
 2480               	.L203:
 2481               	.LM352:
 2482 0ccc 8091 0000 		lds r24,OSIntNesting
 2483 0cd0 8823      		tst r24
 2484 0cd2 01F0      		breq .+2
 2485 0cd4 00C0      		rjmp .L205
 2486 0cd6 8091 0000 		lds r24,OSLockNesting
 2487 0cda 8823      		tst r24
 2488 0cdc 01F4      		brne .L205
 2489               	.LM353:
 2490 0cde E091 0000 		lds r30,OSRdyGrp
 2491 0ce2 F0E0      		ldi r31,lo8(0)
 2492 0ce4 E050      		subi r30,lo8(-(OSUnMapTbl))
 2493 0ce6 F040      		sbci r31,hi8(-(OSUnMapTbl))
 2494 0ce8 8081      		ld r24,Z
 2495 0cea 8093 0000 		sts OSIntExitY,r24
 2496               	.LM354:
 2497 0cee E82F      		mov r30,r24
 2498 0cf0 F0E0      		ldi r31,lo8(0)
 2499 0cf2 E050      		subi r30,lo8(-(OSRdyTbl))
 2500 0cf4 F040      		sbci r31,hi8(-(OSRdyTbl))
 2501 0cf6 E081      		ld r30,Z
 2502 0cf8 F0E0      		ldi r31,lo8(0)
 2503 0cfa E050      		subi r30,lo8(-(OSUnMapTbl))
 2504 0cfc F040      		sbci r31,hi8(-(OSUnMapTbl))
 2505 0cfe 982F      		mov r25,r24
 2506 0d00 990F      		lsl r25
 2507 0d02 990F      		lsl r25
 2508 0d04 990F      		lsl r25
 2509 0d06 8081      		ld r24,Z
 2510 0d08 980F      		add r25,r24
 2511 0d0a 9093 0000 		sts OSPrioHighRdy,r25
 2512               	.LM355:
 2513 0d0e 8091 0000 		lds r24,OSPrioCur
 2514 0d12 9817      		cp r25,r24
 2515 0d14 01F0      		breq .L205
 2516               	.LM356:
 2517 0d16 E92F      		mov r30,r25
 2518 0d18 F0E0      		ldi r31,lo8(0)
 2519 0d1a EE0F      		lsl r30
 2520 0d1c FF1F      		rol r31
 2521 0d1e E050      		subi r30,lo8(-(OSTCBPrioTbl))
 2522 0d20 F040      		sbci r31,hi8(-(OSTCBPrioTbl))
 2523 0d22 8081      		ld r24,Z
 2524 0d24 9181      		ldd r25,Z+1
 2525 0d26 9093 0000 		sts (OSTCBHighRdy)+1,r25
 2526 0d2a 8093 0000 		sts OSTCBHighRdy,r24
 2527               	.LM357:
 2528 0d2e 8091 0000 		lds r24,OSCtxSwCtr
 2529 0d32 9091 0000 		lds r25,(OSCtxSwCtr)+1
 2530 0d36 A091 0000 		lds r26,(OSCtxSwCtr)+2
 2531 0d3a B091 0000 		lds r27,(OSCtxSwCtr)+3
 2532 0d3e 0196      		adiw r24,1
 2533 0d40 A11D      		adc r26,__zero_reg__
 2534 0d42 B11D      		adc r27,__zero_reg__
 2535 0d44 8093 0000 		sts OSCtxSwCtr,r24
 2536 0d48 9093 0000 		sts (OSCtxSwCtr)+1,r25
 2537 0d4c A093 0000 		sts (OSCtxSwCtr)+2,r26
 2538 0d50 B093 0000 		sts (OSCtxSwCtr)+3,r27
 2539               	.LM358:
 2540 0d54 0E94 0000 		call OSIntCtxSw
 2541               	.L205:
 2542               	.LM359:
 2543               	/* #APP */
 2544 0d58 7894      		sei
 2545               	/* #NOAPP */
 2546               	.L209:
 2547 0d5a 0895      		ret
 2548               	/* epilogue: frame size=0 */
 2549               	/* epilogue: noreturn */
 2550               	/* epilogue end (size=0) */
 2551               	/* function OSIntExit size 87 (87) */
 2552               	.LFE4:
 2554               	.global	OSInit
 2556               	OSInit:
 2557               	.LFB2:
 2558               	.LM360:
 2559               	/* prologue: frame size=0 */
 2560               	/* prologue end (size=0) */
 2561               	.LM361:
 2562 0d5c 0E94 0000 		call OSInitHookBegin
 2563               	.LBB14:
 2564               	.LBB15:
 2565               	.LM362:
 2566 0d60 1092 0000 		sts OSTime,__zero_reg__
 2567 0d64 1092 0000 		sts (OSTime)+1,__zero_reg__
 2568 0d68 1092 0000 		sts (OSTime)+2,__zero_reg__
 2569 0d6c 1092 0000 		sts (OSTime)+3,__zero_reg__
 2570               	.LM363:
 2571 0d70 1092 0000 		sts OSIntNesting,__zero_reg__
 2572               	.LM364:
 2573 0d74 1092 0000 		sts OSLockNesting,__zero_reg__
 2574               	.LM365:
 2575 0d78 1092 0000 		sts OSTaskCtr,__zero_reg__
 2576               	.LM366:
 2577 0d7c 1092 0000 		sts OSRunning,__zero_reg__
 2578               	.LM367:
 2579 0d80 1092 0000 		sts OSCtxSwCtr,__zero_reg__
 2580 0d84 1092 0000 		sts (OSCtxSwCtr)+1,__zero_reg__
 2581 0d88 1092 0000 		sts (OSCtxSwCtr)+2,__zero_reg__
 2582 0d8c 1092 0000 		sts (OSCtxSwCtr)+3,__zero_reg__
 2583               	.LM368:
 2584 0d90 1092 0000 		sts OSIdleCtr,__zero_reg__
 2585 0d94 1092 0000 		sts (OSIdleCtr)+1,__zero_reg__
 2586 0d98 1092 0000 		sts (OSIdleCtr)+2,__zero_reg__
 2587 0d9c 1092 0000 		sts (OSIdleCtr)+3,__zero_reg__
 2588               	.LBE15:
 2589               	.LBE14:
 2590               	.LBB16:
 2591               	.LBB17:
 2592               	.LM369:
 2593 0da0 1092 0000 		sts OSRdyGrp,__zero_reg__
 2594 0da4 E0E0      		ldi r30,lo8(OSRdyTbl)
 2595 0da6 F0E0      		ldi r31,hi8(OSRdyTbl)
 2596               	.LVL181:
 2597               	.L211:
 2598               	.LM370:
 2599 0da8 1192      		st Z+,__zero_reg__
 2600               	.LM371:
 2601 0daa 40E0      		ldi r20,hi8(OSRdyTbl+8)
 2602 0dac E030      		cpi r30,lo8(OSRdyTbl+8)
 2603 0dae F407      		cpc r31,r20
 2604 0db0 01F4      		brne .L211
 2605               	.LM372:
 2606 0db2 1092 0000 		sts OSPrioCur,__zero_reg__
 2607               	.LM373:
 2608 0db6 1092 0000 		sts OSPrioHighRdy,__zero_reg__
 2609               	.LM374:
 2610 0dba 1092 0000 		sts (OSTCBHighRdy)+1,__zero_reg__
 2611 0dbe 1092 0000 		sts OSTCBHighRdy,__zero_reg__
 2612               	.LM375:
 2613 0dc2 1092 0000 		sts (OSTCBCur)+1,__zero_reg__
 2614 0dc6 1092 0000 		sts OSTCBCur,__zero_reg__
 2615               	.LBE17:
 2616               	.LBE16:
 2617               	.LBB18:
 2618               	.LBB19:
 2619               	.LM376:
 2620 0dca 1092 0000 		sts (OSTCBList)+1,__zero_reg__
 2621 0dce 1092 0000 		sts OSTCBList,__zero_reg__
 2622 0dd2 E0E0      		ldi r30,lo8(OSTCBPrioTbl)
 2623 0dd4 F0E0      		ldi r31,hi8(OSTCBPrioTbl)
 2624               	.LVL182:
 2625               	.L213:
 2626               	.LM377:
 2627 0dd6 1192      		st Z+,__zero_reg__
 2628 0dd8 1192      		st Z+,__zero_reg__
 2629               	.LM378:
 2630 0dda 80E0      		ldi r24,hi8(OSTCBPrioTbl+128)
 2631 0ddc E030      		cpi r30,lo8(OSTCBPrioTbl+128)
 2632 0dde F807      		cpc r31,r24
 2633 0de0 01F4      		brne .L213
 2634 0de2 E0E0      		ldi r30,lo8(OSTCBTbl)
 2635 0de4 F0E0      		ldi r31,hi8(OSTCBTbl)
 2636               	.LVL183:
 2637               	.LM379:
 2638 0de6 9F01      		movw r18,r30
 2639               	.LVL184:
 2640               	.L215:
 2641               	.LM380:
 2642 0de8 CF01      		movw r24,r30
 2643 0dea 4196      		adiw r24,17
 2644               	.LVL185:
 2645               	.LM381:
 2646 0dec 9383      		std Z+3,r25
 2647 0dee 8283      		std Z+2,r24
 2648               	.LM382:
 2649 0df0 40E0      		ldi r20,hi8(OSTCBTbl+153)
 2650 0df2 8030      		cpi r24,lo8(OSTCBTbl+153)
 2651 0df4 9407      		cpc r25,r20
 2652 0df6 01F0      		breq .L216
 2653 0df8 FC01      		movw r30,r24
 2654 0dfa 00C0      		rjmp .L215
 2655               	.L216:
 2656               	.LM383:
 2657 0dfc 1092 0000 		sts (OSTCBTbl+155)+1,__zero_reg__
 2658 0e00 1092 0000 		sts OSTCBTbl+155,__zero_reg__
 2659               	.LM384:
 2660 0e04 3093 0000 		sts (OSTCBFreeList)+1,r19
 2661 0e08 2093 0000 		sts OSTCBFreeList,r18
 2662               	.LBE19:
 2663               	.LBE18:
 2664               	.LBB20:
 2665               	.LBB21:
 2666               	.LM385:
 2667 0e0c 1092 0000 		sts OSEventTbl,__zero_reg__
 2668               	.LM386:
 2669 0e10 80E0      		ldi r24,lo8(OSEventTbl+14)
 2670 0e12 90E0      		ldi r25,hi8(OSEventTbl+14)
 2671               	.LVL186:
 2672 0e14 9093 0000 		sts (OSEventTbl+4)+1,r25
 2673 0e18 8093 0000 		sts OSEventTbl+4,r24
 2674               	.LM387:
 2675 0e1c 1092 0000 		sts OSEventTbl+14,__zero_reg__
 2676               	.LM388:
 2677 0e20 0E96      		adiw r24,14
 2678 0e22 9093 0000 		sts (OSEventTbl+18)+1,r25
 2679 0e26 8093 0000 		sts OSEventTbl+18,r24
 2680 0e2a 4C97      		sbiw r24,28
 2681               	.LM389:
 2682 0e2c 1092 0000 		sts OSEventTbl+28,__zero_reg__
 2683               	.LM390:
 2684 0e30 1092 0000 		sts (OSEventTbl+32)+1,__zero_reg__
 2685 0e34 1092 0000 		sts OSEventTbl+32,__zero_reg__
 2686               	.LM391:
 2687 0e38 9093 0000 		sts (OSEventFreeList)+1,r25
 2688 0e3c 8093 0000 		sts OSEventFreeList,r24
 2689               	.LBE21:
 2690               	.LBE20:
 2691               	.LBB22:
 2692               	.LBB23:
 2693               	.LM392:
 2694 0e40 2FE3      		ldi r18,lo8(63)
 2695               	.LVL187:
 2696 0e42 40E0      		ldi r20,lo8(OSTaskIdleStk+127)
 2697 0e44 50E0      		ldi r21,hi8(OSTaskIdleStk+127)
 2698 0e46 60E0      		ldi r22,lo8(0)
 2699 0e48 70E0      		ldi r23,hi8(0)
 2700 0e4a 80E0      		ldi r24,lo8(gs(OS_TaskIdle))
 2701 0e4c 90E0      		ldi r25,hi8(gs(OS_TaskIdle))
 2702 0e4e 0E94 0000 		call OSTaskCreate
 2703               	.LVL188:
 2704               	.LBE23:
 2705               	.LBE22:
 2706               	.LBB24:
 2707               	.LBB25:
 2708               	.LM393:
 2709 0e52 2EE3      		ldi r18,lo8(62)
 2710 0e54 40E0      		ldi r20,lo8(OSTaskStatStk+127)
 2711 0e56 50E0      		ldi r21,hi8(OSTaskStatStk+127)
 2712 0e58 60E0      		ldi r22,lo8(0)
 2713 0e5a 70E0      		ldi r23,hi8(0)
 2714 0e5c 80E0      		ldi r24,lo8(gs(OS_TaskStat))
 2715 0e5e 90E0      		ldi r25,hi8(gs(OS_TaskStat))
 2716 0e60 0E94 0000 		call OSTaskCreate
 2717               	.LBE25:
 2718               	.LBE24:
 2719               	.LM394:
 2720 0e64 0E94 0000 		call OSInitHookEnd
 2721               	/* epilogue: frame size=0 */
 2722 0e68 0895      		ret
 2723               	/* epilogue end (size=1) */
 2724               	/* function OSInit size 135 (134) */
 2725               	.LFE2:
 2727               	.global	OSTaskDel
 2729               	OSTaskDel:
 2730               	.LFB31:
 2731               	.LM395:
 2732               	/* prologue: frame size=0 */
 2733 0e6a 0F93      		push r16
 2734 0e6c 1F93      		push r17
 2735 0e6e CF93      		push r28
 2736 0e70 DF93      		push r29
 2737               	/* prologue end (size=4) */
 2738               	.LVL189:
 2739 0e72 E82F      		mov r30,r24
 2740               	.LM396:
 2741 0e74 8091 0000 		lds r24,OSIntNesting
 2742               	.LVL190:
 2743 0e78 8823      		tst r24
 2744 0e7a 01F0      		breq .L224
 2745               	.LM397:
 2746 0e7c 8FE3      		ldi r24,lo8(63)
 2747 0e7e 90E0      		ldi r25,hi8(63)
 2748 0e80 00C0      		rjmp .L226
 2749               	.L224:
 2750               	.LM398:
 2751               	/* #APP */
 2752 0e82 F894      		cli
 2753               	.LM399:
 2754               	/* #NOAPP */
 2755 0e84 EF3F      		cpi r30,lo8(-1)
 2756 0e86 01F4      		brne .L227
 2757               	.LM400:
 2758 0e88 E091 0000 		lds r30,OSTCBCur
 2759 0e8c F091 0000 		lds r31,(OSTCBCur)+1
 2760               	.LVL191:
 2761 0e90 E385      		ldd r30,Z+11
 2762               	.LVL192:
 2763               	.L227:
 2764               	.LM401:
 2765 0e92 0E2F      		mov r16,r30
 2766 0e94 10E0      		ldi r17,lo8(0)
 2767 0e96 F801      		movw r30,r16
 2768               	.LVL193:
 2769 0e98 EE0F      		lsl r30
 2770 0e9a FF1F      		rol r31
 2771 0e9c E050      		subi r30,lo8(-(OSTCBPrioTbl))
 2772 0e9e F040      		sbci r31,hi8(-(OSTCBPrioTbl))
 2773 0ea0 C081      		ld r28,Z
 2774 0ea2 D181      		ldd r29,Z+1
 2775               	.LVL194:
 2776               	.LM402:
 2777 0ea4 2097      		sbiw r28,0
 2778 0ea6 01F4      		brne .+2
 2779 0ea8 00C0      		rjmp .L229
 2780               	.LM403:
 2781 0eaa 8D85      		ldd r24,Y+13
 2782 0eac 482F      		mov r20,r24
 2783 0eae 50E0      		ldi r21,lo8(0)
 2784 0eb0 2E85      		ldd r18,Y+14
 2785 0eb2 2095      		com r18
 2786 0eb4 FA01      		movw r30,r20
 2787 0eb6 E050      		subi r30,lo8(-(OSRdyTbl))
 2788 0eb8 F040      		sbci r31,hi8(-(OSRdyTbl))
 2789 0eba 8081      		ld r24,Z
 2790 0ebc 8223      		and r24,r18
 2791 0ebe 8083      		st Z,r24
 2792 0ec0 8823      		tst r24
 2793 0ec2 01F4      		brne .L231
 2794               	.LM404:
 2795 0ec4 9F85      		ldd r25,Y+15
 2796 0ec6 9095      		com r25
 2797 0ec8 8091 0000 		lds r24,OSRdyGrp
 2798 0ecc 8923      		and r24,r25
 2799 0ece 8093 0000 		sts OSRdyGrp,r24
 2800               	.L231:
 2801               	.LM405:
 2802 0ed2 AE81      		ldd r26,Y+6
 2803 0ed4 BF81      		ldd r27,Y+7
 2804               	.LVL195:
 2805               	.LM406:
 2806 0ed6 1097      		sbiw r26,0
 2807 0ed8 01F0      		breq .L233
 2808               	.LM407:
 2809 0eda FD01      		movw r30,r26
 2810 0edc E40F      		add r30,r20
 2811 0ede F51F      		adc r31,r21
 2812 0ee0 8681      		ldd r24,Z+6
 2813 0ee2 8223      		and r24,r18
 2814 0ee4 8683      		std Z+6,r24
 2815 0ee6 8823      		tst r24
 2816 0ee8 01F4      		brne .L233
 2817               	.LM408:
 2818 0eea 9F85      		ldd r25,Y+15
 2819 0eec 9095      		com r25
 2820 0eee FD01      		movw r30,r26
 2821 0ef0 8181      		ldd r24,Z+1
 2822 0ef2 8923      		and r24,r25
 2823 0ef4 8183      		std Z+1,r24
 2824               	.L233:
 2825               	.LM409:
 2826 0ef6 1986      		std Y+9,__zero_reg__
 2827 0ef8 1886      		std Y+8,__zero_reg__
 2828               	.LM410:
 2829 0efa 1A86      		std Y+10,__zero_reg__
 2830               	.LM411:
 2831 0efc 8091 0000 		lds r24,OSLockNesting
 2832 0f00 8F3F      		cpi r24,lo8(-1)
 2833 0f02 01F0      		breq .L236
 2834               	.LM412:
 2835 0f04 8F5F      		subi r24,lo8(-(1))
 2836 0f06 8093 0000 		sts OSLockNesting,r24
 2837               	.L236:
 2838               	.LM413:
 2839               	/* #APP */
 2840 0f0a 7894      		sei
 2841               	.LM414:
 2842 0f0c F894      		cli
 2843               	.LM415:
 2844               	/* #NOAPP */
 2845 0f0e 8091 0000 		lds r24,OSLockNesting
 2846 0f12 8823      		tst r24
 2847 0f14 01F0      		breq .L238
 2848               	.LM416:
 2849 0f16 8150      		subi r24,lo8(-(-1))
 2850 0f18 8093 0000 		sts OSLockNesting,r24
 2851               	.L238:
 2852               	.LM417:
 2853 0f1c CE01      		movw r24,r28
 2854 0f1e 0E94 0000 		call OSTaskDelHook
 2855               	.LVL196:
 2856               	.LM418:
 2857 0f22 8091 0000 		lds r24,OSTaskCtr
 2858 0f26 8150      		subi r24,lo8(-(-1))
 2859 0f28 8093 0000 		sts OSTaskCtr,r24
 2860               	.LM419:
 2861 0f2c 000F      		lsl r16
 2862 0f2e 111F      		rol r17
 2863 0f30 0050      		subi r16,lo8(-(OSTCBPrioTbl))
 2864 0f32 1040      		sbci r17,hi8(-(OSTCBPrioTbl))
 2865 0f34 F801      		movw r30,r16
 2866 0f36 1182      		std Z+1,__zero_reg__
 2867 0f38 1082      		st Z,__zero_reg__
 2868               	.LM420:
 2869 0f3a AC81      		ldd r26,Y+4
 2870 0f3c BD81      		ldd r27,Y+5
 2871 0f3e 8A81      		ldd r24,Y+2
 2872 0f40 9B81      		ldd r25,Y+3
 2873 0f42 1097      		sbiw r26,0
 2874 0f44 01F4      		brne .L240
 2875               	.LM421:
 2876 0f46 FC01      		movw r30,r24
 2877 0f48 1582      		std Z+5,__zero_reg__
 2878 0f4a 1482      		std Z+4,__zero_reg__
 2879               	.LM422:
 2880 0f4c 9093 0000 		sts (OSTCBList)+1,r25
 2881 0f50 8093 0000 		sts OSTCBList,r24
 2882 0f54 00C0      		rjmp .L242
 2883               	.L240:
 2884               	.LM423:
 2885 0f56 FD01      		movw r30,r26
 2886 0f58 9383      		std Z+3,r25
 2887 0f5a 8283      		std Z+2,r24
 2888               	.LM424:
 2889 0f5c EA81      		ldd r30,Y+2
 2890 0f5e FB81      		ldd r31,Y+3
 2891 0f60 B583      		std Z+5,r27
 2892 0f62 A483      		std Z+4,r26
 2893               	.L242:
 2894               	.LM425:
 2895 0f64 8091 0000 		lds r24,OSTCBFreeList
 2896 0f68 9091 0000 		lds r25,(OSTCBFreeList)+1
 2897 0f6c 9B83      		std Y+3,r25
 2898 0f6e 8A83      		std Y+2,r24
 2899               	.LM426:
 2900 0f70 D093 0000 		sts (OSTCBFreeList)+1,r29
 2901 0f74 C093 0000 		sts OSTCBFreeList,r28
 2902               	.LM427:
 2903               	/* #APP */
 2904 0f78 7894      		sei
 2905               	.LM428:
 2906               	/* #NOAPP */
 2907 0f7a 0E94 0000 		call OS_Sched
 2908 0f7e 80E0      		ldi r24,lo8(0)
 2909 0f80 90E0      		ldi r25,hi8(0)
 2910 0f82 00C0      		rjmp .L226
 2911               	.L229:
 2912               	.LM429:
 2913               	/* #APP */
 2914 0f84 7894      		sei
 2915               	/* #NOAPP */
 2916 0f86 8CE3      		ldi r24,lo8(60)
 2917 0f88 90E0      		ldi r25,hi8(60)
 2918               	.LVL197:
 2919               	.L226:
 2920               	/* epilogue: frame size=0 */
 2921 0f8a DF91      		pop r29
 2922 0f8c CF91      		pop r28
 2923 0f8e 1F91      		pop r17
 2924 0f90 0F91      		pop r16
 2925 0f92 0895      		ret
 2926               	/* epilogue end (size=5) */
 2927               	/* function OSTaskDel size 154 (145) */
 2928               	.LFE31:
 2930               	.global	OSMapTbl
 2931               		.data
 2934               	OSMapTbl:
 2935 0000 01        		.byte	1
 2936 0001 02        		.byte	2
 2937 0002 04        		.byte	4
 2938 0003 08        		.byte	8
 2939 0004 10        		.byte	16
 2940 0005 20        		.byte	32
 2941 0006 40        		.byte	64
 2942 0007 80        		.byte	-128
 2943               	.global	OSUnMapTbl
 2946               	OSUnMapTbl:
 2947 0008 00        		.byte	0
 2948 0009 00        		.byte	0
 2949 000a 01        		.byte	1
 2950 000b 00        		.byte	0
 2951 000c 02        		.byte	2
 2952 000d 00        		.byte	0
 2953 000e 01        		.byte	1
 2954 000f 00        		.byte	0
 2955 0010 03        		.byte	3
 2956 0011 00        		.byte	0
 2957 0012 01        		.byte	1
 2958 0013 00        		.byte	0
 2959 0014 02        		.byte	2
 2960 0015 00        		.byte	0
 2961 0016 01        		.byte	1
 2962 0017 00        		.byte	0
 2963 0018 04        		.byte	4
 2964 0019 00        		.byte	0
 2965 001a 01        		.byte	1
 2966 001b 00        		.byte	0
 2967 001c 02        		.byte	2
 2968 001d 00        		.byte	0
 2969 001e 01        		.byte	1
 2970 001f 00        		.byte	0
 2971 0020 03        		.byte	3
 2972 0021 00        		.byte	0
 2973 0022 01        		.byte	1
 2974 0023 00        		.byte	0
 2975 0024 02        		.byte	2
 2976 0025 00        		.byte	0
 2977 0026 01        		.byte	1
 2978 0027 00        		.byte	0
 2979 0028 05        		.byte	5
 2980 0029 00        		.byte	0
 2981 002a 01        		.byte	1
 2982 002b 00        		.byte	0
 2983 002c 02        		.byte	2
 2984 002d 00        		.byte	0
 2985 002e 01        		.byte	1
 2986 002f 00        		.byte	0
 2987 0030 03        		.byte	3
 2988 0031 00        		.byte	0
 2989 0032 01        		.byte	1
 2990 0033 00        		.byte	0
 2991 0034 02        		.byte	2
 2992 0035 00        		.byte	0
 2993 0036 01        		.byte	1
 2994 0037 00        		.byte	0
 2995 0038 04        		.byte	4
 2996 0039 00        		.byte	0
 2997 003a 01        		.byte	1
 2998 003b 00        		.byte	0
 2999 003c 02        		.byte	2
 3000 003d 00        		.byte	0
 3001 003e 01        		.byte	1
 3002 003f 00        		.byte	0
 3003 0040 03        		.byte	3
 3004 0041 00        		.byte	0
 3005 0042 01        		.byte	1
 3006 0043 00        		.byte	0
 3007 0044 02        		.byte	2
 3008 0045 00        		.byte	0
 3009 0046 01        		.byte	1
 3010 0047 00        		.byte	0
 3011 0048 06        		.byte	6
 3012 0049 00        		.byte	0
 3013 004a 01        		.byte	1
 3014 004b 00        		.byte	0
 3015 004c 02        		.byte	2
 3016 004d 00        		.byte	0
 3017 004e 01        		.byte	1
 3018 004f 00        		.byte	0
 3019 0050 03        		.byte	3
 3020 0051 00        		.byte	0
 3021 0052 01        		.byte	1
 3022 0053 00        		.byte	0
 3023 0054 02        		.byte	2
 3024 0055 00        		.byte	0
 3025 0056 01        		.byte	1
 3026 0057 00        		.byte	0
 3027 0058 04        		.byte	4
 3028 0059 00        		.byte	0
 3029 005a 01        		.byte	1
 3030 005b 00        		.byte	0
 3031 005c 02        		.byte	2
 3032 005d 00        		.byte	0
 3033 005e 01        		.byte	1
 3034 005f 00        		.byte	0
 3035 0060 03        		.byte	3
 3036 0061 00        		.byte	0
 3037 0062 01        		.byte	1
 3038 0063 00        		.byte	0
 3039 0064 02        		.byte	2
 3040 0065 00        		.byte	0
 3041 0066 01        		.byte	1
 3042 0067 00        		.byte	0
 3043 0068 05        		.byte	5
 3044 0069 00        		.byte	0
 3045 006a 01        		.byte	1
 3046 006b 00        		.byte	0
 3047 006c 02        		.byte	2
 3048 006d 00        		.byte	0
 3049 006e 01        		.byte	1
 3050 006f 00        		.byte	0
 3051 0070 03        		.byte	3
 3052 0071 00        		.byte	0
 3053 0072 01        		.byte	1
 3054 0073 00        		.byte	0
 3055 0074 02        		.byte	2
 3056 0075 00        		.byte	0
 3057 0076 01        		.byte	1
 3058 0077 00        		.byte	0
 3059 0078 04        		.byte	4
 3060 0079 00        		.byte	0
 3061 007a 01        		.byte	1
 3062 007b 00        		.byte	0
 3063 007c 02        		.byte	2
 3064 007d 00        		.byte	0
 3065 007e 01        		.byte	1
 3066 007f 00        		.byte	0
 3067 0080 03        		.byte	3
 3068 0081 00        		.byte	0
 3069 0082 01        		.byte	1
 3070 0083 00        		.byte	0
 3071 0084 02        		.byte	2
 3072 0085 00        		.byte	0
 3073 0086 01        		.byte	1
 3074 0087 00        		.byte	0
 3075 0088 07        		.byte	7
 3076 0089 00        		.byte	0
 3077 008a 01        		.byte	1
 3078 008b 00        		.byte	0
 3079 008c 02        		.byte	2
 3080 008d 00        		.byte	0
 3081 008e 01        		.byte	1
 3082 008f 00        		.byte	0
 3083 0090 03        		.byte	3
 3084 0091 00        		.byte	0
 3085 0092 01        		.byte	1
 3086 0093 00        		.byte	0
 3087 0094 02        		.byte	2
 3088 0095 00        		.byte	0
 3089 0096 01        		.byte	1
 3090 0097 00        		.byte	0
 3091 0098 04        		.byte	4
 3092 0099 00        		.byte	0
 3093 009a 01        		.byte	1
 3094 009b 00        		.byte	0
 3095 009c 02        		.byte	2
 3096 009d 00        		.byte	0
 3097 009e 01        		.byte	1
 3098 009f 00        		.byte	0
 3099 00a0 03        		.byte	3
 3100 00a1 00        		.byte	0
 3101 00a2 01        		.byte	1
 3102 00a3 00        		.byte	0
 3103 00a4 02        		.byte	2
 3104 00a5 00        		.byte	0
 3105 00a6 01        		.byte	1
 3106 00a7 00        		.byte	0
 3107 00a8 05        		.byte	5
 3108 00a9 00        		.byte	0
 3109 00aa 01        		.byte	1
 3110 00ab 00        		.byte	0
 3111 00ac 02        		.byte	2
 3112 00ad 00        		.byte	0
 3113 00ae 01        		.byte	1
 3114 00af 00        		.byte	0
 3115 00b0 03        		.byte	3
 3116 00b1 00        		.byte	0
 3117 00b2 01        		.byte	1
 3118 00b3 00        		.byte	0
 3119 00b4 02        		.byte	2
 3120 00b5 00        		.byte	0
 3121 00b6 01        		.byte	1
 3122 00b7 00        		.byte	0
 3123 00b8 04        		.byte	4
 3124 00b9 00        		.byte	0
 3125 00ba 01        		.byte	1
 3126 00bb 00        		.byte	0
 3127 00bc 02        		.byte	2
 3128 00bd 00        		.byte	0
 3129 00be 01        		.byte	1
 3130 00bf 00        		.byte	0
 3131 00c0 03        		.byte	3
 3132 00c1 00        		.byte	0
 3133 00c2 01        		.byte	1
 3134 00c3 00        		.byte	0
 3135 00c4 02        		.byte	2
 3136 00c5 00        		.byte	0
 3137 00c6 01        		.byte	1
 3138 00c7 00        		.byte	0
 3139 00c8 06        		.byte	6
 3140 00c9 00        		.byte	0
 3141 00ca 01        		.byte	1
 3142 00cb 00        		.byte	0
 3143 00cc 02        		.byte	2
 3144 00cd 00        		.byte	0
 3145 00ce 01        		.byte	1
 3146 00cf 00        		.byte	0
 3147 00d0 03        		.byte	3
 3148 00d1 00        		.byte	0
 3149 00d2 01        		.byte	1
 3150 00d3 00        		.byte	0
 3151 00d4 02        		.byte	2
 3152 00d5 00        		.byte	0
 3153 00d6 01        		.byte	1
 3154 00d7 00        		.byte	0
 3155 00d8 04        		.byte	4
 3156 00d9 00        		.byte	0
 3157 00da 01        		.byte	1
 3158 00db 00        		.byte	0
 3159 00dc 02        		.byte	2
 3160 00dd 00        		.byte	0
 3161 00de 01        		.byte	1
 3162 00df 00        		.byte	0
 3163 00e0 03        		.byte	3
 3164 00e1 00        		.byte	0
 3165 00e2 01        		.byte	1
 3166 00e3 00        		.byte	0
 3167 00e4 02        		.byte	2
 3168 00e5 00        		.byte	0
 3169 00e6 01        		.byte	1
 3170 00e7 00        		.byte	0
 3171 00e8 05        		.byte	5
 3172 00e9 00        		.byte	0
 3173 00ea 01        		.byte	1
 3174 00eb 00        		.byte	0
 3175 00ec 02        		.byte	2
 3176 00ed 00        		.byte	0
 3177 00ee 01        		.byte	1
 3178 00ef 00        		.byte	0
 3179 00f0 03        		.byte	3
 3180 00f1 00        		.byte	0
 3181 00f2 01        		.byte	1
 3182 00f3 00        		.byte	0
 3183 00f4 02        		.byte	2
 3184 00f5 00        		.byte	0
 3185 00f6 01        		.byte	1
 3186 00f7 00        		.byte	0
 3187 00f8 04        		.byte	4
 3188 00f9 00        		.byte	0
 3189 00fa 01        		.byte	1
 3190 00fb 00        		.byte	0
 3191 00fc 02        		.byte	2
 3192 00fd 00        		.byte	0
 3193 00fe 01        		.byte	1
 3194 00ff 00        		.byte	0
 3195 0100 03        		.byte	3
 3196 0101 00        		.byte	0
 3197 0102 01        		.byte	1
 3198 0103 00        		.byte	0
 3199 0104 02        		.byte	2
 3200 0105 00        		.byte	0
 3201 0106 01        		.byte	1
 3202 0107 00        		.byte	0
 3203               		.comm OSCtxSwCtr,4,1
 3204               		.comm OSEventFreeList,2,1
 3205               		.comm OSEventTbl,42,1
 3206               		.comm OSCPUUsage,1,1
 3207               		.comm OSIdleCtrMax,4,1
 3208               		.comm OSIdleCtrRun,4,1
 3209               		.comm OSStatRdy,1,1
 3210               		.comm OSTaskStatStk,128,1
 3211               		.comm OSIntNesting,1,1
 3212               		.comm OSIntExitY,1,1
 3213               		.comm OSLockNesting,1,1
 3214               		.comm OSPrioCur,1,1
 3215               		.comm OSPrioHighRdy,1,1
 3216               		.comm OSRdyGrp,1,1
 3217               		.comm OSRdyTbl,8,1
 3218               		.comm OSRunning,1,1
 3219               		.comm OSTaskCtr,1,1
 3220               		.comm OSIdleCtr,4,1
 3221               		.comm OSTaskIdleStk,128,1
 3222               		.comm OSTCBCur,2,1
 3223               		.comm OSTCBFreeList,2,1
 3224               		.comm OSTCBHighRdy,2,1
 3225               		.comm OSTCBList,2,1
 3226               		.comm OSTCBPrioTbl,128,1
 3227               		.comm OSTCBTbl,170,1
 3228               		.comm OSTime,4,1
 3485               	.Letext0:
DEFINED SYMBOLS
                            *ABS*:00000000 ucos_ii.c
C:\Users\VARGAB~1\AppData\Local\Temp/ccFe6mO3.s:2      *ABS*:0000003f __SREG__
C:\Users\VARGAB~1\AppData\Local\Temp/ccFe6mO3.s:3      *ABS*:0000003e __SP_H__
C:\Users\VARGAB~1\AppData\Local\Temp/ccFe6mO3.s:4      *ABS*:0000003d __SP_L__
C:\Users\VARGAB~1\AppData\Local\Temp/ccFe6mO3.s:5      *ABS*:00000000 __tmp_reg__
C:\Users\VARGAB~1\AppData\Local\Temp/ccFe6mO3.s:6      *ABS*:00000001 __zero_reg__
C:\Users\VARGAB~1\AppData\Local\Temp/ccFe6mO3.s:19     .text:00000000 OSIntEnter
                            *COM*:00000001 OSRunning
                            *COM*:00000001 OSIntNesting
C:\Users\VARGAB~1\AppData\Local\Temp/ccFe6mO3.s:45     .text:00000018 OSVersion
C:\Users\VARGAB~1\AppData\Local\Temp/ccFe6mO3.s:61     .text:0000001e OS_Dummy
C:\Users\VARGAB~1\AppData\Local\Temp/ccFe6mO3.s:74     .text:00000020 OS_EventTaskRdy
C:\Users\VARGAB~1\AppData\Local\Temp/ccFe6mO3.s:2946   .data:00000008 OSUnMapTbl
C:\Users\VARGAB~1\AppData\Local\Temp/ccFe6mO3.s:2934   .data:00000000 OSMapTbl
                            *COM*:00000080 OSTCBPrioTbl
                            *COM*:00000001 OSRdyGrp
                            *COM*:00000008 OSRdyTbl
C:\Users\VARGAB~1\AppData\Local\Temp/ccFe6mO3.s:201    .text:000000ca OS_EventTaskWait
                            *COM*:00000002 OSTCBCur
C:\Users\VARGAB~1\AppData\Local\Temp/ccFe6mO3.s:264    .text:0000012c OS_EventTO
C:\Users\VARGAB~1\AppData\Local\Temp/ccFe6mO3.s:317    .text:00000180 OS_EventWaitListInit
C:\Users\VARGAB~1\AppData\Local\Temp/ccFe6mO3.s:350    .text:00000196 OSMutexCreate
                            *COM*:00000002 OSEventFreeList
C:\Users\VARGAB~1\AppData\Local\Temp/ccFe6mO3.s:472    .text:0000022c OSSemCreate
C:\Users\VARGAB~1\AppData\Local\Temp/ccFe6mO3.s:543    .text:0000027a OSTaskDelReq
C:\Users\VARGAB~1\AppData\Local\Temp/ccFe6mO3.s:615    .text:000002b8 OSTimeGet
                            *COM*:00000004 OSTime
C:\Users\VARGAB~1\AppData\Local\Temp/ccFe6mO3.s:643    .text:000002ce OSTimeSet
C:\Users\VARGAB~1\AppData\Local\Temp/ccFe6mO3.s:670    .text:000002e4 OS_TCBInit
                            *COM*:00000002 OSTCBFreeList
                            *COM*:00000002 OSTCBList
C:\Users\VARGAB~1\AppData\Local\Temp/ccFe6mO3.s:822    .text:000003b0 OS_TaskIdle
                            *COM*:00000004 OSIdleCtr
C:\Users\VARGAB~1\AppData\Local\Temp/ccFe6mO3.s:861    .text:000003e0 OS_Sched
                            *COM*:00000001 OSLockNesting
                            *COM*:00000001 OSPrioHighRdy
                            *COM*:00000001 OSPrioCur
                            *COM*:00000002 OSTCBHighRdy
                            *COM*:00000004 OSCtxSwCtr
C:\Users\VARGAB~1\AppData\Local\Temp/ccFe6mO3.s:950    .text:0000046e OSTimeDlyResume
C:\Users\VARGAB~1\AppData\Local\Temp/ccFe6mO3.s:1060   .text:000004e6 OSTimeDly
C:\Users\VARGAB~1\AppData\Local\Temp/ccFe6mO3.s:1122   .text:00000532 OSTimeDlyHMSM
C:\Users\VARGAB~1\AppData\Local\Temp/ccFe6mO3.s:1318   .text:0000065e OS_TaskStat
                            *COM*:00000001 OSStatRdy
                            *COM*:00000004 OSIdleCtrMax
                            *COM*:00000004 OSIdleCtrRun
                            *COM*:00000001 OSCPUUsage
C:\Users\VARGAB~1\AppData\Local\Temp/ccFe6mO3.s:1443   .text:00000734 OSStatInit
C:\Users\VARGAB~1\AppData\Local\Temp/ccFe6mO3.s:1497   .text:00000784 OSTaskCreate
                            *COM*:00000001 OSTaskCtr
C:\Users\VARGAB~1\AppData\Local\Temp/ccFe6mO3.s:1640   .text:00000834 OSSemPost
C:\Users\VARGAB~1\AppData\Local\Temp/ccFe6mO3.s:1708   .text:00000874 OSSemPend
C:\Users\VARGAB~1\AppData\Local\Temp/ccFe6mO3.s:1817   .text:000008f8 OSMutexPost
C:\Users\VARGAB~1\AppData\Local\Temp/ccFe6mO3.s:2051   .text:00000a60 OSMutexPend
C:\Users\VARGAB~1\AppData\Local\Temp/ccFe6mO3.s:2289   .text:00000bba OSTimeTick
C:\Users\VARGAB~1\AppData\Local\Temp/ccFe6mO3.s:2396   .text:00000c58 OSStart
C:\Users\VARGAB~1\AppData\Local\Temp/ccFe6mO3.s:2459   .text:00000cb2 OSIntExit
                            *COM*:00000001 OSIntExitY
C:\Users\VARGAB~1\AppData\Local\Temp/ccFe6mO3.s:2556   .text:00000d5c OSInit
                            *COM*:000000aa OSTCBTbl
                            *COM*:0000002a OSEventTbl
                            *COM*:00000080 OSTaskIdleStk
                            *COM*:00000080 OSTaskStatStk
C:\Users\VARGAB~1\AppData\Local\Temp/ccFe6mO3.s:2729   .text:00000e6a OSTaskDel

UNDEFINED SYMBOLS
__do_copy_data
__do_clear_bss
OSTCBInitHook
OSTaskCreateHook
OSTaskIdleHook
OSCtxSw
__mulsi3
__udivmodsi4
OSTaskStatHook
OSTaskStkInit
OSTimeTickHook
OSStartHighRdy
OSIntCtxSw
OSInitHookBegin
OSInitHookEnd
OSTaskDelHook
